   1               		.file	"CDCClassDevice.c"
   2               	__SP_H__ = 0x3e
   3               	__SP_L__ = 0x3d
   4               	__SREG__ = 0x3f
   5               	__tmp_reg__ = 0
   6               	__zero_reg__ = 1
   7               		.text
   8               	.Ltext0:
   9               		.cfi_sections	.debug_frame
  10               		.section	.text.CDC_Device_ConfigureEndpoints,"ax",@progbits
  11               	.global	CDC_Device_ConfigureEndpoints
  13               	CDC_Device_ConfigureEndpoints:
  14               	.LFB101:
  15               		.file 1 "../../tmk_core/protocol/lufa/LUFA-git/LUFA/Drivers/USB/Class/Device/CDCClassDevice.c"
   1:../../tmk_core/protocol/lufa/LUFA-git/LUFA/Drivers/USB/Class/Device/CDCClassDevice.c **** /*
   2:../../tmk_core/protocol/lufa/LUFA-git/LUFA/Drivers/USB/Class/Device/CDCClassDevice.c ****              LUFA Library
   3:../../tmk_core/protocol/lufa/LUFA-git/LUFA/Drivers/USB/Class/Device/CDCClassDevice.c ****      Copyright (C) Dean Camera, 2014.
   4:../../tmk_core/protocol/lufa/LUFA-git/LUFA/Drivers/USB/Class/Device/CDCClassDevice.c **** 
   5:../../tmk_core/protocol/lufa/LUFA-git/LUFA/Drivers/USB/Class/Device/CDCClassDevice.c ****   dean [at] fourwalledcubicle [dot] com
   6:../../tmk_core/protocol/lufa/LUFA-git/LUFA/Drivers/USB/Class/Device/CDCClassDevice.c ****            www.lufa-lib.org
   7:../../tmk_core/protocol/lufa/LUFA-git/LUFA/Drivers/USB/Class/Device/CDCClassDevice.c **** */
   8:../../tmk_core/protocol/lufa/LUFA-git/LUFA/Drivers/USB/Class/Device/CDCClassDevice.c **** 
   9:../../tmk_core/protocol/lufa/LUFA-git/LUFA/Drivers/USB/Class/Device/CDCClassDevice.c **** /*
  10:../../tmk_core/protocol/lufa/LUFA-git/LUFA/Drivers/USB/Class/Device/CDCClassDevice.c ****   Copyright 2014  Dean Camera (dean [at] fourwalledcubicle [dot] com)
  11:../../tmk_core/protocol/lufa/LUFA-git/LUFA/Drivers/USB/Class/Device/CDCClassDevice.c **** 
  12:../../tmk_core/protocol/lufa/LUFA-git/LUFA/Drivers/USB/Class/Device/CDCClassDevice.c ****   Permission to use, copy, modify, distribute, and sell this
  13:../../tmk_core/protocol/lufa/LUFA-git/LUFA/Drivers/USB/Class/Device/CDCClassDevice.c ****   software and its documentation for any purpose is hereby granted
  14:../../tmk_core/protocol/lufa/LUFA-git/LUFA/Drivers/USB/Class/Device/CDCClassDevice.c ****   without fee, provided that the above copyright notice appear in
  15:../../tmk_core/protocol/lufa/LUFA-git/LUFA/Drivers/USB/Class/Device/CDCClassDevice.c ****   all copies and that both that the copyright notice and this
  16:../../tmk_core/protocol/lufa/LUFA-git/LUFA/Drivers/USB/Class/Device/CDCClassDevice.c ****   permission notice and warranty disclaimer appear in supporting
  17:../../tmk_core/protocol/lufa/LUFA-git/LUFA/Drivers/USB/Class/Device/CDCClassDevice.c ****   documentation, and that the name of the author not be used in
  18:../../tmk_core/protocol/lufa/LUFA-git/LUFA/Drivers/USB/Class/Device/CDCClassDevice.c ****   advertising or publicity pertaining to distribution of the
  19:../../tmk_core/protocol/lufa/LUFA-git/LUFA/Drivers/USB/Class/Device/CDCClassDevice.c ****   software without specific, written prior permission.
  20:../../tmk_core/protocol/lufa/LUFA-git/LUFA/Drivers/USB/Class/Device/CDCClassDevice.c **** 
  21:../../tmk_core/protocol/lufa/LUFA-git/LUFA/Drivers/USB/Class/Device/CDCClassDevice.c ****   The author disclaims all warranties with regard to this
  22:../../tmk_core/protocol/lufa/LUFA-git/LUFA/Drivers/USB/Class/Device/CDCClassDevice.c ****   software, including all implied warranties of merchantability
  23:../../tmk_core/protocol/lufa/LUFA-git/LUFA/Drivers/USB/Class/Device/CDCClassDevice.c ****   and fitness.  In no event shall the author be liable for any
  24:../../tmk_core/protocol/lufa/LUFA-git/LUFA/Drivers/USB/Class/Device/CDCClassDevice.c ****   special, indirect or consequential damages or any damages
  25:../../tmk_core/protocol/lufa/LUFA-git/LUFA/Drivers/USB/Class/Device/CDCClassDevice.c ****   whatsoever resulting from loss of use, data or profits, whether
  26:../../tmk_core/protocol/lufa/LUFA-git/LUFA/Drivers/USB/Class/Device/CDCClassDevice.c ****   in an action of contract, negligence or other tortious action,
  27:../../tmk_core/protocol/lufa/LUFA-git/LUFA/Drivers/USB/Class/Device/CDCClassDevice.c ****   arising out of or in connection with the use or performance of
  28:../../tmk_core/protocol/lufa/LUFA-git/LUFA/Drivers/USB/Class/Device/CDCClassDevice.c ****   this software.
  29:../../tmk_core/protocol/lufa/LUFA-git/LUFA/Drivers/USB/Class/Device/CDCClassDevice.c **** */
  30:../../tmk_core/protocol/lufa/LUFA-git/LUFA/Drivers/USB/Class/Device/CDCClassDevice.c **** 
  31:../../tmk_core/protocol/lufa/LUFA-git/LUFA/Drivers/USB/Class/Device/CDCClassDevice.c **** #define  __INCLUDE_FROM_USB_DRIVER
  32:../../tmk_core/protocol/lufa/LUFA-git/LUFA/Drivers/USB/Class/Device/CDCClassDevice.c **** #include "../../Core/USBMode.h"
  33:../../tmk_core/protocol/lufa/LUFA-git/LUFA/Drivers/USB/Class/Device/CDCClassDevice.c **** 
  34:../../tmk_core/protocol/lufa/LUFA-git/LUFA/Drivers/USB/Class/Device/CDCClassDevice.c **** #if defined(USB_CAN_BE_DEVICE)
  35:../../tmk_core/protocol/lufa/LUFA-git/LUFA/Drivers/USB/Class/Device/CDCClassDevice.c **** 
  36:../../tmk_core/protocol/lufa/LUFA-git/LUFA/Drivers/USB/Class/Device/CDCClassDevice.c **** #define  __INCLUDE_FROM_CDC_DRIVER
  37:../../tmk_core/protocol/lufa/LUFA-git/LUFA/Drivers/USB/Class/Device/CDCClassDevice.c **** #define  __INCLUDE_FROM_CDC_DEVICE_C
  38:../../tmk_core/protocol/lufa/LUFA-git/LUFA/Drivers/USB/Class/Device/CDCClassDevice.c **** #include "CDCClassDevice.h"
  39:../../tmk_core/protocol/lufa/LUFA-git/LUFA/Drivers/USB/Class/Device/CDCClassDevice.c **** 
  40:../../tmk_core/protocol/lufa/LUFA-git/LUFA/Drivers/USB/Class/Device/CDCClassDevice.c **** void CDC_Device_ProcessControlRequest(USB_ClassInfo_CDC_Device_t* const CDCInterfaceInfo)
  41:../../tmk_core/protocol/lufa/LUFA-git/LUFA/Drivers/USB/Class/Device/CDCClassDevice.c **** {
  42:../../tmk_core/protocol/lufa/LUFA-git/LUFA/Drivers/USB/Class/Device/CDCClassDevice.c **** 	if (!(Endpoint_IsSETUPReceived()))
  43:../../tmk_core/protocol/lufa/LUFA-git/LUFA/Drivers/USB/Class/Device/CDCClassDevice.c **** 	  return;
  44:../../tmk_core/protocol/lufa/LUFA-git/LUFA/Drivers/USB/Class/Device/CDCClassDevice.c **** 
  45:../../tmk_core/protocol/lufa/LUFA-git/LUFA/Drivers/USB/Class/Device/CDCClassDevice.c **** 	if (USB_ControlRequest.wIndex != CDCInterfaceInfo->Config.ControlInterfaceNumber)
  46:../../tmk_core/protocol/lufa/LUFA-git/LUFA/Drivers/USB/Class/Device/CDCClassDevice.c **** 	  return;
  47:../../tmk_core/protocol/lufa/LUFA-git/LUFA/Drivers/USB/Class/Device/CDCClassDevice.c **** 
  48:../../tmk_core/protocol/lufa/LUFA-git/LUFA/Drivers/USB/Class/Device/CDCClassDevice.c **** 	switch (USB_ControlRequest.bRequest)
  49:../../tmk_core/protocol/lufa/LUFA-git/LUFA/Drivers/USB/Class/Device/CDCClassDevice.c **** 	{
  50:../../tmk_core/protocol/lufa/LUFA-git/LUFA/Drivers/USB/Class/Device/CDCClassDevice.c **** 		case CDC_REQ_GetLineEncoding:
  51:../../tmk_core/protocol/lufa/LUFA-git/LUFA/Drivers/USB/Class/Device/CDCClassDevice.c **** 			if (USB_ControlRequest.bmRequestType == (REQDIR_DEVICETOHOST | REQTYPE_CLASS | REQREC_INTERFACE)
  52:../../tmk_core/protocol/lufa/LUFA-git/LUFA/Drivers/USB/Class/Device/CDCClassDevice.c **** 			{
  53:../../tmk_core/protocol/lufa/LUFA-git/LUFA/Drivers/USB/Class/Device/CDCClassDevice.c **** 				Endpoint_ClearSETUP();
  54:../../tmk_core/protocol/lufa/LUFA-git/LUFA/Drivers/USB/Class/Device/CDCClassDevice.c **** 
  55:../../tmk_core/protocol/lufa/LUFA-git/LUFA/Drivers/USB/Class/Device/CDCClassDevice.c **** 				while (!(Endpoint_IsINReady()));
  56:../../tmk_core/protocol/lufa/LUFA-git/LUFA/Drivers/USB/Class/Device/CDCClassDevice.c **** 
  57:../../tmk_core/protocol/lufa/LUFA-git/LUFA/Drivers/USB/Class/Device/CDCClassDevice.c **** 				Endpoint_Write_32_LE(CDCInterfaceInfo->State.LineEncoding.BaudRateBPS);
  58:../../tmk_core/protocol/lufa/LUFA-git/LUFA/Drivers/USB/Class/Device/CDCClassDevice.c **** 				Endpoint_Write_8(CDCInterfaceInfo->State.LineEncoding.CharFormat);
  59:../../tmk_core/protocol/lufa/LUFA-git/LUFA/Drivers/USB/Class/Device/CDCClassDevice.c **** 				Endpoint_Write_8(CDCInterfaceInfo->State.LineEncoding.ParityType);
  60:../../tmk_core/protocol/lufa/LUFA-git/LUFA/Drivers/USB/Class/Device/CDCClassDevice.c **** 				Endpoint_Write_8(CDCInterfaceInfo->State.LineEncoding.DataBits);
  61:../../tmk_core/protocol/lufa/LUFA-git/LUFA/Drivers/USB/Class/Device/CDCClassDevice.c **** 
  62:../../tmk_core/protocol/lufa/LUFA-git/LUFA/Drivers/USB/Class/Device/CDCClassDevice.c **** 				Endpoint_ClearIN();
  63:../../tmk_core/protocol/lufa/LUFA-git/LUFA/Drivers/USB/Class/Device/CDCClassDevice.c **** 				Endpoint_ClearStatusStage();
  64:../../tmk_core/protocol/lufa/LUFA-git/LUFA/Drivers/USB/Class/Device/CDCClassDevice.c **** 			}
  65:../../tmk_core/protocol/lufa/LUFA-git/LUFA/Drivers/USB/Class/Device/CDCClassDevice.c **** 
  66:../../tmk_core/protocol/lufa/LUFA-git/LUFA/Drivers/USB/Class/Device/CDCClassDevice.c **** 			break;
  67:../../tmk_core/protocol/lufa/LUFA-git/LUFA/Drivers/USB/Class/Device/CDCClassDevice.c **** 		case CDC_REQ_SetLineEncoding:
  68:../../tmk_core/protocol/lufa/LUFA-git/LUFA/Drivers/USB/Class/Device/CDCClassDevice.c **** 			if (USB_ControlRequest.bmRequestType == (REQDIR_HOSTTODEVICE | REQTYPE_CLASS | REQREC_INTERFACE)
  69:../../tmk_core/protocol/lufa/LUFA-git/LUFA/Drivers/USB/Class/Device/CDCClassDevice.c **** 			{
  70:../../tmk_core/protocol/lufa/LUFA-git/LUFA/Drivers/USB/Class/Device/CDCClassDevice.c **** 				Endpoint_ClearSETUP();
  71:../../tmk_core/protocol/lufa/LUFA-git/LUFA/Drivers/USB/Class/Device/CDCClassDevice.c **** 
  72:../../tmk_core/protocol/lufa/LUFA-git/LUFA/Drivers/USB/Class/Device/CDCClassDevice.c **** 				while (!(Endpoint_IsOUTReceived()))
  73:../../tmk_core/protocol/lufa/LUFA-git/LUFA/Drivers/USB/Class/Device/CDCClassDevice.c **** 				{
  74:../../tmk_core/protocol/lufa/LUFA-git/LUFA/Drivers/USB/Class/Device/CDCClassDevice.c **** 					if (USB_DeviceState == DEVICE_STATE_Unattached)
  75:../../tmk_core/protocol/lufa/LUFA-git/LUFA/Drivers/USB/Class/Device/CDCClassDevice.c **** 					  return;
  76:../../tmk_core/protocol/lufa/LUFA-git/LUFA/Drivers/USB/Class/Device/CDCClassDevice.c **** 				}
  77:../../tmk_core/protocol/lufa/LUFA-git/LUFA/Drivers/USB/Class/Device/CDCClassDevice.c **** 
  78:../../tmk_core/protocol/lufa/LUFA-git/LUFA/Drivers/USB/Class/Device/CDCClassDevice.c **** 				CDCInterfaceInfo->State.LineEncoding.BaudRateBPS = Endpoint_Read_32_LE();
  79:../../tmk_core/protocol/lufa/LUFA-git/LUFA/Drivers/USB/Class/Device/CDCClassDevice.c **** 				CDCInterfaceInfo->State.LineEncoding.CharFormat  = Endpoint_Read_8();
  80:../../tmk_core/protocol/lufa/LUFA-git/LUFA/Drivers/USB/Class/Device/CDCClassDevice.c **** 				CDCInterfaceInfo->State.LineEncoding.ParityType  = Endpoint_Read_8();
  81:../../tmk_core/protocol/lufa/LUFA-git/LUFA/Drivers/USB/Class/Device/CDCClassDevice.c **** 				CDCInterfaceInfo->State.LineEncoding.DataBits    = Endpoint_Read_8();
  82:../../tmk_core/protocol/lufa/LUFA-git/LUFA/Drivers/USB/Class/Device/CDCClassDevice.c **** 
  83:../../tmk_core/protocol/lufa/LUFA-git/LUFA/Drivers/USB/Class/Device/CDCClassDevice.c **** 				Endpoint_ClearOUT();
  84:../../tmk_core/protocol/lufa/LUFA-git/LUFA/Drivers/USB/Class/Device/CDCClassDevice.c **** 				Endpoint_ClearStatusStage();
  85:../../tmk_core/protocol/lufa/LUFA-git/LUFA/Drivers/USB/Class/Device/CDCClassDevice.c **** 
  86:../../tmk_core/protocol/lufa/LUFA-git/LUFA/Drivers/USB/Class/Device/CDCClassDevice.c **** 				EVENT_CDC_Device_LineEncodingChanged(CDCInterfaceInfo);
  87:../../tmk_core/protocol/lufa/LUFA-git/LUFA/Drivers/USB/Class/Device/CDCClassDevice.c **** 			}
  88:../../tmk_core/protocol/lufa/LUFA-git/LUFA/Drivers/USB/Class/Device/CDCClassDevice.c **** 
  89:../../tmk_core/protocol/lufa/LUFA-git/LUFA/Drivers/USB/Class/Device/CDCClassDevice.c **** 			break;
  90:../../tmk_core/protocol/lufa/LUFA-git/LUFA/Drivers/USB/Class/Device/CDCClassDevice.c **** 		case CDC_REQ_SetControlLineState:
  91:../../tmk_core/protocol/lufa/LUFA-git/LUFA/Drivers/USB/Class/Device/CDCClassDevice.c **** 			if (USB_ControlRequest.bmRequestType == (REQDIR_HOSTTODEVICE | REQTYPE_CLASS | REQREC_INTERFACE)
  92:../../tmk_core/protocol/lufa/LUFA-git/LUFA/Drivers/USB/Class/Device/CDCClassDevice.c **** 			{
  93:../../tmk_core/protocol/lufa/LUFA-git/LUFA/Drivers/USB/Class/Device/CDCClassDevice.c **** 				Endpoint_ClearSETUP();
  94:../../tmk_core/protocol/lufa/LUFA-git/LUFA/Drivers/USB/Class/Device/CDCClassDevice.c **** 				Endpoint_ClearStatusStage();
  95:../../tmk_core/protocol/lufa/LUFA-git/LUFA/Drivers/USB/Class/Device/CDCClassDevice.c **** 
  96:../../tmk_core/protocol/lufa/LUFA-git/LUFA/Drivers/USB/Class/Device/CDCClassDevice.c **** 				CDCInterfaceInfo->State.ControlLineStates.HostToDevice = USB_ControlRequest.wValue;
  97:../../tmk_core/protocol/lufa/LUFA-git/LUFA/Drivers/USB/Class/Device/CDCClassDevice.c **** 
  98:../../tmk_core/protocol/lufa/LUFA-git/LUFA/Drivers/USB/Class/Device/CDCClassDevice.c **** 				EVENT_CDC_Device_ControLineStateChanged(CDCInterfaceInfo);
  99:../../tmk_core/protocol/lufa/LUFA-git/LUFA/Drivers/USB/Class/Device/CDCClassDevice.c **** 			}
 100:../../tmk_core/protocol/lufa/LUFA-git/LUFA/Drivers/USB/Class/Device/CDCClassDevice.c **** 
 101:../../tmk_core/protocol/lufa/LUFA-git/LUFA/Drivers/USB/Class/Device/CDCClassDevice.c **** 			break;
 102:../../tmk_core/protocol/lufa/LUFA-git/LUFA/Drivers/USB/Class/Device/CDCClassDevice.c **** 		case CDC_REQ_SendBreak:
 103:../../tmk_core/protocol/lufa/LUFA-git/LUFA/Drivers/USB/Class/Device/CDCClassDevice.c **** 			if (USB_ControlRequest.bmRequestType == (REQDIR_HOSTTODEVICE | REQTYPE_CLASS | REQREC_INTERFACE)
 104:../../tmk_core/protocol/lufa/LUFA-git/LUFA/Drivers/USB/Class/Device/CDCClassDevice.c **** 			{
 105:../../tmk_core/protocol/lufa/LUFA-git/LUFA/Drivers/USB/Class/Device/CDCClassDevice.c **** 				Endpoint_ClearSETUP();
 106:../../tmk_core/protocol/lufa/LUFA-git/LUFA/Drivers/USB/Class/Device/CDCClassDevice.c **** 				Endpoint_ClearStatusStage();
 107:../../tmk_core/protocol/lufa/LUFA-git/LUFA/Drivers/USB/Class/Device/CDCClassDevice.c **** 
 108:../../tmk_core/protocol/lufa/LUFA-git/LUFA/Drivers/USB/Class/Device/CDCClassDevice.c **** 				EVENT_CDC_Device_BreakSent(CDCInterfaceInfo, (uint8_t)USB_ControlRequest.wValue);
 109:../../tmk_core/protocol/lufa/LUFA-git/LUFA/Drivers/USB/Class/Device/CDCClassDevice.c **** 			}
 110:../../tmk_core/protocol/lufa/LUFA-git/LUFA/Drivers/USB/Class/Device/CDCClassDevice.c **** 
 111:../../tmk_core/protocol/lufa/LUFA-git/LUFA/Drivers/USB/Class/Device/CDCClassDevice.c **** 			break;
 112:../../tmk_core/protocol/lufa/LUFA-git/LUFA/Drivers/USB/Class/Device/CDCClassDevice.c **** 	}
 113:../../tmk_core/protocol/lufa/LUFA-git/LUFA/Drivers/USB/Class/Device/CDCClassDevice.c **** }
 114:../../tmk_core/protocol/lufa/LUFA-git/LUFA/Drivers/USB/Class/Device/CDCClassDevice.c **** 
 115:../../tmk_core/protocol/lufa/LUFA-git/LUFA/Drivers/USB/Class/Device/CDCClassDevice.c **** bool CDC_Device_ConfigureEndpoints(USB_ClassInfo_CDC_Device_t* const CDCInterfaceInfo)
 116:../../tmk_core/protocol/lufa/LUFA-git/LUFA/Drivers/USB/Class/Device/CDCClassDevice.c **** {
  16               		.loc 1 116 0
  17               		.cfi_startproc
  18               	.LVL0:
  19 0000 CF93      		push r28
  20               	.LCFI0:
  21               		.cfi_def_cfa_offset 3
  22               		.cfi_offset 28, -2
  23 0002 DF93      		push r29
  24               	.LCFI1:
  25               		.cfi_def_cfa_offset 4
  26               		.cfi_offset 29, -3
  27               	/* prologue: function */
  28               	/* frame size = 0 */
  29               	/* stack size = 2 */
  30               	.L__stack_usage = 2
  31 0004 EC01      		movw r28,r24
 117:../../tmk_core/protocol/lufa/LUFA-git/LUFA/Drivers/USB/Class/Device/CDCClassDevice.c **** 	memset(&CDCInterfaceInfo->State, 0x00, sizeof(CDCInterfaceInfo->State));
  32               		.loc 1 117 0
  33 0006 FC01      		movw r30,r24
  34 0008 7096      		adiw r30,16
  35 000a 8BE0      		ldi r24,lo8(11)
  36               	.LVL1:
  37 000c DF01      		movw r26,r30
  38               		0:
  39 000e 1D92      		st X+,__zero_reg__
  40 0010 8A95      		dec r24
  41 0012 01F4      		brne 0b
 118:../../tmk_core/protocol/lufa/LUFA-git/LUFA/Drivers/USB/Class/Device/CDCClassDevice.c **** 
 119:../../tmk_core/protocol/lufa/LUFA-git/LUFA/Drivers/USB/Class/Device/CDCClassDevice.c **** 	CDCInterfaceInfo->Config.DataINEndpoint.Type       = EP_TYPE_BULK;
  42               		.loc 1 119 0
  43 0014 82E0      		ldi r24,lo8(2)
  44 0016 8C83      		std Y+4,r24
 120:../../tmk_core/protocol/lufa/LUFA-git/LUFA/Drivers/USB/Class/Device/CDCClassDevice.c **** 	CDCInterfaceInfo->Config.DataOUTEndpoint.Type      = EP_TYPE_BULK;
  45               		.loc 1 120 0
  46 0018 8987      		std Y+9,r24
 121:../../tmk_core/protocol/lufa/LUFA-git/LUFA/Drivers/USB/Class/Device/CDCClassDevice.c **** 	CDCInterfaceInfo->Config.NotificationEndpoint.Type = EP_TYPE_INTERRUPT;
  47               		.loc 1 121 0
  48 001a 83E0      		ldi r24,lo8(3)
  49 001c 8E87      		std Y+14,r24
 122:../../tmk_core/protocol/lufa/LUFA-git/LUFA/Drivers/USB/Class/Device/CDCClassDevice.c **** 
 123:../../tmk_core/protocol/lufa/LUFA-git/LUFA/Drivers/USB/Class/Device/CDCClassDevice.c **** 	if (!(Endpoint_ConfigureEndpointTable(&CDCInterfaceInfo->Config.DataINEndpoint, 1)))
  50               		.loc 1 123 0
  51 001e 61E0      		ldi r22,lo8(1)
  52 0020 CE01      		movw r24,r28
  53 0022 0196      		adiw r24,1
  54 0024 0E94 0000 		call Endpoint_ConfigureEndpointTable
  55               	.LVL2:
  56 0028 8823      		tst r24
  57 002a 01F0      		breq .L3
 124:../../tmk_core/protocol/lufa/LUFA-git/LUFA/Drivers/USB/Class/Device/CDCClassDevice.c **** 	  return false;
 125:../../tmk_core/protocol/lufa/LUFA-git/LUFA/Drivers/USB/Class/Device/CDCClassDevice.c **** 
 126:../../tmk_core/protocol/lufa/LUFA-git/LUFA/Drivers/USB/Class/Device/CDCClassDevice.c **** 	if (!(Endpoint_ConfigureEndpointTable(&CDCInterfaceInfo->Config.DataOUTEndpoint, 1)))
  58               		.loc 1 126 0
  59 002c 61E0      		ldi r22,lo8(1)
  60 002e CE01      		movw r24,r28
  61 0030 0696      		adiw r24,6
  62 0032 0E94 0000 		call Endpoint_ConfigureEndpointTable
  63               	.LVL3:
  64 0036 8823      		tst r24
  65 0038 01F0      		breq .L3
 127:../../tmk_core/protocol/lufa/LUFA-git/LUFA/Drivers/USB/Class/Device/CDCClassDevice.c **** 	  return false;
 128:../../tmk_core/protocol/lufa/LUFA-git/LUFA/Drivers/USB/Class/Device/CDCClassDevice.c **** 
 129:../../tmk_core/protocol/lufa/LUFA-git/LUFA/Drivers/USB/Class/Device/CDCClassDevice.c **** 	if (!(Endpoint_ConfigureEndpointTable(&CDCInterfaceInfo->Config.NotificationEndpoint, 1)))
  66               		.loc 1 129 0
  67 003a 61E0      		ldi r22,lo8(1)
  68 003c CE01      		movw r24,r28
  69 003e 0B96      		adiw r24,11
  70               	/* epilogue start */
 130:../../tmk_core/protocol/lufa/LUFA-git/LUFA/Drivers/USB/Class/Device/CDCClassDevice.c **** 	  return false;
 131:../../tmk_core/protocol/lufa/LUFA-git/LUFA/Drivers/USB/Class/Device/CDCClassDevice.c **** 
 132:../../tmk_core/protocol/lufa/LUFA-git/LUFA/Drivers/USB/Class/Device/CDCClassDevice.c **** 	return true;
 133:../../tmk_core/protocol/lufa/LUFA-git/LUFA/Drivers/USB/Class/Device/CDCClassDevice.c **** }
  71               		.loc 1 133 0
  72 0040 DF91      		pop r29
  73 0042 CF91      		pop r28
  74               	.LVL4:
 129:../../tmk_core/protocol/lufa/LUFA-git/LUFA/Drivers/USB/Class/Device/CDCClassDevice.c **** 	  return false;
  75               		.loc 1 129 0
  76 0044 0C94 0000 		jmp Endpoint_ConfigureEndpointTable
  77               	.LVL5:
  78               	.L3:
  79               		.loc 1 133 0
  80 0048 80E0      		ldi r24,0
  81               	/* epilogue start */
  82 004a DF91      		pop r29
  83 004c CF91      		pop r28
  84               	.LVL6:
  85 004e 0895      		ret
  86               		.cfi_endproc
  87               	.LFE101:
  89               		.section	.text.CDC_Device_SendString,"ax",@progbits
  90               	.global	CDC_Device_SendString
  92               	CDC_Device_SendString:
  93               	.LFB103:
 134:../../tmk_core/protocol/lufa/LUFA-git/LUFA/Drivers/USB/Class/Device/CDCClassDevice.c **** 
 135:../../tmk_core/protocol/lufa/LUFA-git/LUFA/Drivers/USB/Class/Device/CDCClassDevice.c **** void CDC_Device_USBTask(USB_ClassInfo_CDC_Device_t* const CDCInterfaceInfo)
 136:../../tmk_core/protocol/lufa/LUFA-git/LUFA/Drivers/USB/Class/Device/CDCClassDevice.c **** {
 137:../../tmk_core/protocol/lufa/LUFA-git/LUFA/Drivers/USB/Class/Device/CDCClassDevice.c **** 	if ((USB_DeviceState != DEVICE_STATE_Configured) || !(CDCInterfaceInfo->State.LineEncoding.BaudRat
 138:../../tmk_core/protocol/lufa/LUFA-git/LUFA/Drivers/USB/Class/Device/CDCClassDevice.c **** 	  return;
 139:../../tmk_core/protocol/lufa/LUFA-git/LUFA/Drivers/USB/Class/Device/CDCClassDevice.c **** 
 140:../../tmk_core/protocol/lufa/LUFA-git/LUFA/Drivers/USB/Class/Device/CDCClassDevice.c **** 	#if !defined(NO_CLASS_DRIVER_AUTOFLUSH)
 141:../../tmk_core/protocol/lufa/LUFA-git/LUFA/Drivers/USB/Class/Device/CDCClassDevice.c **** 	Endpoint_SelectEndpoint(CDCInterfaceInfo->Config.DataINEndpoint.Address);
 142:../../tmk_core/protocol/lufa/LUFA-git/LUFA/Drivers/USB/Class/Device/CDCClassDevice.c **** 
 143:../../tmk_core/protocol/lufa/LUFA-git/LUFA/Drivers/USB/Class/Device/CDCClassDevice.c **** 	if (Endpoint_IsINReady())
 144:../../tmk_core/protocol/lufa/LUFA-git/LUFA/Drivers/USB/Class/Device/CDCClassDevice.c **** 	  CDC_Device_Flush(CDCInterfaceInfo);
 145:../../tmk_core/protocol/lufa/LUFA-git/LUFA/Drivers/USB/Class/Device/CDCClassDevice.c **** 	#endif
 146:../../tmk_core/protocol/lufa/LUFA-git/LUFA/Drivers/USB/Class/Device/CDCClassDevice.c **** }
 147:../../tmk_core/protocol/lufa/LUFA-git/LUFA/Drivers/USB/Class/Device/CDCClassDevice.c **** 
 148:../../tmk_core/protocol/lufa/LUFA-git/LUFA/Drivers/USB/Class/Device/CDCClassDevice.c **** uint8_t CDC_Device_SendString(USB_ClassInfo_CDC_Device_t* const CDCInterfaceInfo,
 149:../../tmk_core/protocol/lufa/LUFA-git/LUFA/Drivers/USB/Class/Device/CDCClassDevice.c ****                               const char* const String)
 150:../../tmk_core/protocol/lufa/LUFA-git/LUFA/Drivers/USB/Class/Device/CDCClassDevice.c **** {
  94               		.loc 1 150 0
  95               		.cfi_startproc
  96               	.LVL7:
  97               	/* prologue: function */
  98               	/* frame size = 0 */
  99               	/* stack size = 0 */
 100               	.L__stack_usage = 0
 101 0000 DB01      		movw r26,r22
 151:../../tmk_core/protocol/lufa/LUFA-git/LUFA/Drivers/USB/Class/Device/CDCClassDevice.c **** 	if ((USB_DeviceState != DEVICE_STATE_Configured) || !(CDCInterfaceInfo->State.LineEncoding.BaudRat
 102               		.loc 1 151 0
 103 0002 2091 0000 		lds r18,USB_DeviceState
 104 0006 2430      		cpi r18,lo8(4)
 105 0008 01F4      		brne .L10
 106               		.loc 1 151 0 is_stmt 0 discriminator 1
 107 000a FC01      		movw r30,r24
 108 000c 4489      		ldd r20,Z+20
 109 000e 5589      		ldd r21,Z+21
 110 0010 6689      		ldd r22,Z+22
 111 0012 7789      		ldd r23,Z+23
 112 0014 452B      		or r20,r21
 113 0016 462B      		or r20,r22
 114 0018 472B      		or r20,r23
 115 001a 01F0      		breq .L10
 116               	.LBB89:
 117               	.LBB90:
 118               		.file 2 "../../tmk_core/protocol/lufa/LUFA-git/LUFA/Drivers/USB/Class/Device/../../Core/AVR8/../AV
   1:../../tmk_core/protocol/lufa/LUFA-git/LUFA/Drivers/USB/Class/Device/../../Core/AVR8/../AVR8/Endpoint_AVR8.h **** /*
   2:../../tmk_core/protocol/lufa/LUFA-git/LUFA/Drivers/USB/Class/Device/../../Core/AVR8/../AVR8/Endpoint_AVR8.h ****              LUFA Library
   3:../../tmk_core/protocol/lufa/LUFA-git/LUFA/Drivers/USB/Class/Device/../../Core/AVR8/../AVR8/Endpoint_AVR8.h ****      Copyright (C) Dean Camera, 2014.
   4:../../tmk_core/protocol/lufa/LUFA-git/LUFA/Drivers/USB/Class/Device/../../Core/AVR8/../AVR8/Endpoint_AVR8.h **** 
   5:../../tmk_core/protocol/lufa/LUFA-git/LUFA/Drivers/USB/Class/Device/../../Core/AVR8/../AVR8/Endpoint_AVR8.h ****   dean [at] fourwalledcubicle [dot] com
   6:../../tmk_core/protocol/lufa/LUFA-git/LUFA/Drivers/USB/Class/Device/../../Core/AVR8/../AVR8/Endpoint_AVR8.h ****            www.lufa-lib.org
   7:../../tmk_core/protocol/lufa/LUFA-git/LUFA/Drivers/USB/Class/Device/../../Core/AVR8/../AVR8/Endpoint_AVR8.h **** */
   8:../../tmk_core/protocol/lufa/LUFA-git/LUFA/Drivers/USB/Class/Device/../../Core/AVR8/../AVR8/Endpoint_AVR8.h **** 
   9:../../tmk_core/protocol/lufa/LUFA-git/LUFA/Drivers/USB/Class/Device/../../Core/AVR8/../AVR8/Endpoint_AVR8.h **** /*
  10:../../tmk_core/protocol/lufa/LUFA-git/LUFA/Drivers/USB/Class/Device/../../Core/AVR8/../AVR8/Endpoint_AVR8.h ****   Copyright 2014  Dean Camera (dean [at] fourwalledcubicle [dot] com)
  11:../../tmk_core/protocol/lufa/LUFA-git/LUFA/Drivers/USB/Class/Device/../../Core/AVR8/../AVR8/Endpoint_AVR8.h **** 
  12:../../tmk_core/protocol/lufa/LUFA-git/LUFA/Drivers/USB/Class/Device/../../Core/AVR8/../AVR8/Endpoint_AVR8.h ****   Permission to use, copy, modify, distribute, and sell this
  13:../../tmk_core/protocol/lufa/LUFA-git/LUFA/Drivers/USB/Class/Device/../../Core/AVR8/../AVR8/Endpoint_AVR8.h ****   software and its documentation for any purpose is hereby granted
  14:../../tmk_core/protocol/lufa/LUFA-git/LUFA/Drivers/USB/Class/Device/../../Core/AVR8/../AVR8/Endpoint_AVR8.h ****   without fee, provided that the above copyright notice appear in
  15:../../tmk_core/protocol/lufa/LUFA-git/LUFA/Drivers/USB/Class/Device/../../Core/AVR8/../AVR8/Endpoint_AVR8.h ****   all copies and that both that the copyright notice and this
  16:../../tmk_core/protocol/lufa/LUFA-git/LUFA/Drivers/USB/Class/Device/../../Core/AVR8/../AVR8/Endpoint_AVR8.h ****   permission notice and warranty disclaimer appear in supporting
  17:../../tmk_core/protocol/lufa/LUFA-git/LUFA/Drivers/USB/Class/Device/../../Core/AVR8/../AVR8/Endpoint_AVR8.h ****   documentation, and that the name of the author not be used in
  18:../../tmk_core/protocol/lufa/LUFA-git/LUFA/Drivers/USB/Class/Device/../../Core/AVR8/../AVR8/Endpoint_AVR8.h ****   advertising or publicity pertaining to distribution of the
  19:../../tmk_core/protocol/lufa/LUFA-git/LUFA/Drivers/USB/Class/Device/../../Core/AVR8/../AVR8/Endpoint_AVR8.h ****   software without specific, written prior permission.
  20:../../tmk_core/protocol/lufa/LUFA-git/LUFA/Drivers/USB/Class/Device/../../Core/AVR8/../AVR8/Endpoint_AVR8.h **** 
  21:../../tmk_core/protocol/lufa/LUFA-git/LUFA/Drivers/USB/Class/Device/../../Core/AVR8/../AVR8/Endpoint_AVR8.h ****   The author disclaims all warranties with regard to this
  22:../../tmk_core/protocol/lufa/LUFA-git/LUFA/Drivers/USB/Class/Device/../../Core/AVR8/../AVR8/Endpoint_AVR8.h ****   software, including all implied warranties of merchantability
  23:../../tmk_core/protocol/lufa/LUFA-git/LUFA/Drivers/USB/Class/Device/../../Core/AVR8/../AVR8/Endpoint_AVR8.h ****   and fitness.  In no event shall the author be liable for any
  24:../../tmk_core/protocol/lufa/LUFA-git/LUFA/Drivers/USB/Class/Device/../../Core/AVR8/../AVR8/Endpoint_AVR8.h ****   special, indirect or consequential damages or any damages
  25:../../tmk_core/protocol/lufa/LUFA-git/LUFA/Drivers/USB/Class/Device/../../Core/AVR8/../AVR8/Endpoint_AVR8.h ****   whatsoever resulting from loss of use, data or profits, whether
  26:../../tmk_core/protocol/lufa/LUFA-git/LUFA/Drivers/USB/Class/Device/../../Core/AVR8/../AVR8/Endpoint_AVR8.h ****   in an action of contract, negligence or other tortious action,
  27:../../tmk_core/protocol/lufa/LUFA-git/LUFA/Drivers/USB/Class/Device/../../Core/AVR8/../AVR8/Endpoint_AVR8.h ****   arising out of or in connection with the use or performance of
  28:../../tmk_core/protocol/lufa/LUFA-git/LUFA/Drivers/USB/Class/Device/../../Core/AVR8/../AVR8/Endpoint_AVR8.h ****   this software.
  29:../../tmk_core/protocol/lufa/LUFA-git/LUFA/Drivers/USB/Class/Device/../../Core/AVR8/../AVR8/Endpoint_AVR8.h **** */
  30:../../tmk_core/protocol/lufa/LUFA-git/LUFA/Drivers/USB/Class/Device/../../Core/AVR8/../AVR8/Endpoint_AVR8.h **** 
  31:../../tmk_core/protocol/lufa/LUFA-git/LUFA/Drivers/USB/Class/Device/../../Core/AVR8/../AVR8/Endpoint_AVR8.h **** /** \file
  32:../../tmk_core/protocol/lufa/LUFA-git/LUFA/Drivers/USB/Class/Device/../../Core/AVR8/../AVR8/Endpoint_AVR8.h ****  *  \brief USB Endpoint definitions for the AVR8 microcontrollers.
  33:../../tmk_core/protocol/lufa/LUFA-git/LUFA/Drivers/USB/Class/Device/../../Core/AVR8/../AVR8/Endpoint_AVR8.h ****  *  \copydetails Group_EndpointManagement_AVR8
  34:../../tmk_core/protocol/lufa/LUFA-git/LUFA/Drivers/USB/Class/Device/../../Core/AVR8/../AVR8/Endpoint_AVR8.h ****  *
  35:../../tmk_core/protocol/lufa/LUFA-git/LUFA/Drivers/USB/Class/Device/../../Core/AVR8/../AVR8/Endpoint_AVR8.h ****  *  \note This file should not be included directly. It is automatically included as needed by the 
  36:../../tmk_core/protocol/lufa/LUFA-git/LUFA/Drivers/USB/Class/Device/../../Core/AVR8/../AVR8/Endpoint_AVR8.h ****  *        dispatch header located in LUFA/Drivers/USB/USB.h.
  37:../../tmk_core/protocol/lufa/LUFA-git/LUFA/Drivers/USB/Class/Device/../../Core/AVR8/../AVR8/Endpoint_AVR8.h ****  */
  38:../../tmk_core/protocol/lufa/LUFA-git/LUFA/Drivers/USB/Class/Device/../../Core/AVR8/../AVR8/Endpoint_AVR8.h **** 
  39:../../tmk_core/protocol/lufa/LUFA-git/LUFA/Drivers/USB/Class/Device/../../Core/AVR8/../AVR8/Endpoint_AVR8.h **** /** \ingroup Group_EndpointRW
  40:../../tmk_core/protocol/lufa/LUFA-git/LUFA/Drivers/USB/Class/Device/../../Core/AVR8/../AVR8/Endpoint_AVR8.h ****  *  \defgroup Group_EndpointRW_AVR8 Endpoint Data Reading and Writing (AVR8)
  41:../../tmk_core/protocol/lufa/LUFA-git/LUFA/Drivers/USB/Class/Device/../../Core/AVR8/../AVR8/Endpoint_AVR8.h ****  *  \brief Endpoint data read/write definitions for the Atmel AVR8 architecture.
  42:../../tmk_core/protocol/lufa/LUFA-git/LUFA/Drivers/USB/Class/Device/../../Core/AVR8/../AVR8/Endpoint_AVR8.h ****  *
  43:../../tmk_core/protocol/lufa/LUFA-git/LUFA/Drivers/USB/Class/Device/../../Core/AVR8/../AVR8/Endpoint_AVR8.h ****  *  Functions, macros, variables, enums and types related to data reading and writing from and to e
  44:../../tmk_core/protocol/lufa/LUFA-git/LUFA/Drivers/USB/Class/Device/../../Core/AVR8/../AVR8/Endpoint_AVR8.h ****  */
  45:../../tmk_core/protocol/lufa/LUFA-git/LUFA/Drivers/USB/Class/Device/../../Core/AVR8/../AVR8/Endpoint_AVR8.h **** 
  46:../../tmk_core/protocol/lufa/LUFA-git/LUFA/Drivers/USB/Class/Device/../../Core/AVR8/../AVR8/Endpoint_AVR8.h **** /** \ingroup Group_EndpointPrimitiveRW
  47:../../tmk_core/protocol/lufa/LUFA-git/LUFA/Drivers/USB/Class/Device/../../Core/AVR8/../AVR8/Endpoint_AVR8.h ****  *  \defgroup Group_EndpointPrimitiveRW_AVR8 Read/Write of Primitive Data Types (AVR8)
  48:../../tmk_core/protocol/lufa/LUFA-git/LUFA/Drivers/USB/Class/Device/../../Core/AVR8/../AVR8/Endpoint_AVR8.h ****  *  \brief Endpoint primitive read/write definitions for the Atmel AVR8 architecture.
  49:../../tmk_core/protocol/lufa/LUFA-git/LUFA/Drivers/USB/Class/Device/../../Core/AVR8/../AVR8/Endpoint_AVR8.h ****  *
  50:../../tmk_core/protocol/lufa/LUFA-git/LUFA/Drivers/USB/Class/Device/../../Core/AVR8/../AVR8/Endpoint_AVR8.h ****  *  Functions, macros, variables, enums and types related to data reading and writing of primitive 
  51:../../tmk_core/protocol/lufa/LUFA-git/LUFA/Drivers/USB/Class/Device/../../Core/AVR8/../AVR8/Endpoint_AVR8.h ****  *  from and to endpoints.
  52:../../tmk_core/protocol/lufa/LUFA-git/LUFA/Drivers/USB/Class/Device/../../Core/AVR8/../AVR8/Endpoint_AVR8.h ****  */
  53:../../tmk_core/protocol/lufa/LUFA-git/LUFA/Drivers/USB/Class/Device/../../Core/AVR8/../AVR8/Endpoint_AVR8.h **** 
  54:../../tmk_core/protocol/lufa/LUFA-git/LUFA/Drivers/USB/Class/Device/../../Core/AVR8/../AVR8/Endpoint_AVR8.h **** /** \ingroup Group_EndpointPacketManagement
  55:../../tmk_core/protocol/lufa/LUFA-git/LUFA/Drivers/USB/Class/Device/../../Core/AVR8/../AVR8/Endpoint_AVR8.h ****  *  \defgroup Group_EndpointPacketManagement_AVR8 Endpoint Packet Management (AVR8)
  56:../../tmk_core/protocol/lufa/LUFA-git/LUFA/Drivers/USB/Class/Device/../../Core/AVR8/../AVR8/Endpoint_AVR8.h ****  *  \brief Endpoint packet management definitions for the Atmel AVR8 architecture.
  57:../../tmk_core/protocol/lufa/LUFA-git/LUFA/Drivers/USB/Class/Device/../../Core/AVR8/../AVR8/Endpoint_AVR8.h ****  *
  58:../../tmk_core/protocol/lufa/LUFA-git/LUFA/Drivers/USB/Class/Device/../../Core/AVR8/../AVR8/Endpoint_AVR8.h ****  *  Functions, macros, variables, enums and types related to packet management of endpoints.
  59:../../tmk_core/protocol/lufa/LUFA-git/LUFA/Drivers/USB/Class/Device/../../Core/AVR8/../AVR8/Endpoint_AVR8.h ****  */
  60:../../tmk_core/protocol/lufa/LUFA-git/LUFA/Drivers/USB/Class/Device/../../Core/AVR8/../AVR8/Endpoint_AVR8.h **** 
  61:../../tmk_core/protocol/lufa/LUFA-git/LUFA/Drivers/USB/Class/Device/../../Core/AVR8/../AVR8/Endpoint_AVR8.h **** /** \ingroup Group_EndpointManagement
  62:../../tmk_core/protocol/lufa/LUFA-git/LUFA/Drivers/USB/Class/Device/../../Core/AVR8/../AVR8/Endpoint_AVR8.h ****  *  \defgroup Group_EndpointManagement_AVR8 Endpoint Management (AVR8)
  63:../../tmk_core/protocol/lufa/LUFA-git/LUFA/Drivers/USB/Class/Device/../../Core/AVR8/../AVR8/Endpoint_AVR8.h ****  *  \brief Endpoint management definitions for the Atmel AVR8 architecture.
  64:../../tmk_core/protocol/lufa/LUFA-git/LUFA/Drivers/USB/Class/Device/../../Core/AVR8/../AVR8/Endpoint_AVR8.h ****  *
  65:../../tmk_core/protocol/lufa/LUFA-git/LUFA/Drivers/USB/Class/Device/../../Core/AVR8/../AVR8/Endpoint_AVR8.h ****  *  Functions, macros and enums related to endpoint management when in USB Device mode. This
  66:../../tmk_core/protocol/lufa/LUFA-git/LUFA/Drivers/USB/Class/Device/../../Core/AVR8/../AVR8/Endpoint_AVR8.h ****  *  module contains the endpoint management macros, as well as endpoint interrupt and data
  67:../../tmk_core/protocol/lufa/LUFA-git/LUFA/Drivers/USB/Class/Device/../../Core/AVR8/../AVR8/Endpoint_AVR8.h ****  *  send/receive functions for various data types.
  68:../../tmk_core/protocol/lufa/LUFA-git/LUFA/Drivers/USB/Class/Device/../../Core/AVR8/../AVR8/Endpoint_AVR8.h ****  *
  69:../../tmk_core/protocol/lufa/LUFA-git/LUFA/Drivers/USB/Class/Device/../../Core/AVR8/../AVR8/Endpoint_AVR8.h ****  *  @{
  70:../../tmk_core/protocol/lufa/LUFA-git/LUFA/Drivers/USB/Class/Device/../../Core/AVR8/../AVR8/Endpoint_AVR8.h ****  */
  71:../../tmk_core/protocol/lufa/LUFA-git/LUFA/Drivers/USB/Class/Device/../../Core/AVR8/../AVR8/Endpoint_AVR8.h **** 
  72:../../tmk_core/protocol/lufa/LUFA-git/LUFA/Drivers/USB/Class/Device/../../Core/AVR8/../AVR8/Endpoint_AVR8.h **** #ifndef __ENDPOINT_AVR8_H__
  73:../../tmk_core/protocol/lufa/LUFA-git/LUFA/Drivers/USB/Class/Device/../../Core/AVR8/../AVR8/Endpoint_AVR8.h **** #define __ENDPOINT_AVR8_H__
  74:../../tmk_core/protocol/lufa/LUFA-git/LUFA/Drivers/USB/Class/Device/../../Core/AVR8/../AVR8/Endpoint_AVR8.h **** 
  75:../../tmk_core/protocol/lufa/LUFA-git/LUFA/Drivers/USB/Class/Device/../../Core/AVR8/../AVR8/Endpoint_AVR8.h **** 	/* Includes: */
  76:../../tmk_core/protocol/lufa/LUFA-git/LUFA/Drivers/USB/Class/Device/../../Core/AVR8/../AVR8/Endpoint_AVR8.h **** 		#include "../../../../Common/Common.h"
  77:../../tmk_core/protocol/lufa/LUFA-git/LUFA/Drivers/USB/Class/Device/../../Core/AVR8/../AVR8/Endpoint_AVR8.h **** 		#include "../USBTask.h"
  78:../../tmk_core/protocol/lufa/LUFA-git/LUFA/Drivers/USB/Class/Device/../../Core/AVR8/../AVR8/Endpoint_AVR8.h **** 		#include "../USBInterrupt.h"
  79:../../tmk_core/protocol/lufa/LUFA-git/LUFA/Drivers/USB/Class/Device/../../Core/AVR8/../AVR8/Endpoint_AVR8.h **** 
  80:../../tmk_core/protocol/lufa/LUFA-git/LUFA/Drivers/USB/Class/Device/../../Core/AVR8/../AVR8/Endpoint_AVR8.h **** 	/* Enable C linkage for C++ Compilers: */
  81:../../tmk_core/protocol/lufa/LUFA-git/LUFA/Drivers/USB/Class/Device/../../Core/AVR8/../AVR8/Endpoint_AVR8.h **** 		#if defined(__cplusplus)
  82:../../tmk_core/protocol/lufa/LUFA-git/LUFA/Drivers/USB/Class/Device/../../Core/AVR8/../AVR8/Endpoint_AVR8.h **** 			extern "C" {
  83:../../tmk_core/protocol/lufa/LUFA-git/LUFA/Drivers/USB/Class/Device/../../Core/AVR8/../AVR8/Endpoint_AVR8.h **** 		#endif
  84:../../tmk_core/protocol/lufa/LUFA-git/LUFA/Drivers/USB/Class/Device/../../Core/AVR8/../AVR8/Endpoint_AVR8.h **** 
  85:../../tmk_core/protocol/lufa/LUFA-git/LUFA/Drivers/USB/Class/Device/../../Core/AVR8/../AVR8/Endpoint_AVR8.h **** 	/* Preprocessor Checks: */
  86:../../tmk_core/protocol/lufa/LUFA-git/LUFA/Drivers/USB/Class/Device/../../Core/AVR8/../AVR8/Endpoint_AVR8.h **** 		#if !defined(__INCLUDE_FROM_USB_DRIVER)
  87:../../tmk_core/protocol/lufa/LUFA-git/LUFA/Drivers/USB/Class/Device/../../Core/AVR8/../AVR8/Endpoint_AVR8.h **** 			#error Do not include this file directly. Include LUFA/Drivers/USB/USB.h instead.
  88:../../tmk_core/protocol/lufa/LUFA-git/LUFA/Drivers/USB/Class/Device/../../Core/AVR8/../AVR8/Endpoint_AVR8.h **** 		#endif
  89:../../tmk_core/protocol/lufa/LUFA-git/LUFA/Drivers/USB/Class/Device/../../Core/AVR8/../AVR8/Endpoint_AVR8.h **** 
  90:../../tmk_core/protocol/lufa/LUFA-git/LUFA/Drivers/USB/Class/Device/../../Core/AVR8/../AVR8/Endpoint_AVR8.h **** 	/* Private Interface - For use in library only: */
  91:../../tmk_core/protocol/lufa/LUFA-git/LUFA/Drivers/USB/Class/Device/../../Core/AVR8/../AVR8/Endpoint_AVR8.h **** 	#if !defined(__DOXYGEN__)
  92:../../tmk_core/protocol/lufa/LUFA-git/LUFA/Drivers/USB/Class/Device/../../Core/AVR8/../AVR8/Endpoint_AVR8.h **** 		/* Inline Functions: */
  93:../../tmk_core/protocol/lufa/LUFA-git/LUFA/Drivers/USB/Class/Device/../../Core/AVR8/../AVR8/Endpoint_AVR8.h **** 			static inline uint8_t Endpoint_BytesToEPSizeMask(const uint16_t Bytes) ATTR_WARN_UNUSED_RESULT A
  94:../../tmk_core/protocol/lufa/LUFA-git/LUFA/Drivers/USB/Class/Device/../../Core/AVR8/../AVR8/Endpoint_AVR8.h **** 			                                                                       ATTR_ALWAYS_INLINE;
  95:../../tmk_core/protocol/lufa/LUFA-git/LUFA/Drivers/USB/Class/Device/../../Core/AVR8/../AVR8/Endpoint_AVR8.h **** 			static inline uint8_t Endpoint_BytesToEPSizeMask(const uint16_t Bytes)
  96:../../tmk_core/protocol/lufa/LUFA-git/LUFA/Drivers/USB/Class/Device/../../Core/AVR8/../AVR8/Endpoint_AVR8.h **** 			{
  97:../../tmk_core/protocol/lufa/LUFA-git/LUFA/Drivers/USB/Class/Device/../../Core/AVR8/../AVR8/Endpoint_AVR8.h **** 				uint8_t  MaskVal    = 0;
  98:../../tmk_core/protocol/lufa/LUFA-git/LUFA/Drivers/USB/Class/Device/../../Core/AVR8/../AVR8/Endpoint_AVR8.h **** 				uint16_t CheckBytes = 8;
  99:../../tmk_core/protocol/lufa/LUFA-git/LUFA/Drivers/USB/Class/Device/../../Core/AVR8/../AVR8/Endpoint_AVR8.h **** 
 100:../../tmk_core/protocol/lufa/LUFA-git/LUFA/Drivers/USB/Class/Device/../../Core/AVR8/../AVR8/Endpoint_AVR8.h **** 				while (CheckBytes < Bytes)
 101:../../tmk_core/protocol/lufa/LUFA-git/LUFA/Drivers/USB/Class/Device/../../Core/AVR8/../AVR8/Endpoint_AVR8.h **** 				{
 102:../../tmk_core/protocol/lufa/LUFA-git/LUFA/Drivers/USB/Class/Device/../../Core/AVR8/../AVR8/Endpoint_AVR8.h **** 					MaskVal++;
 103:../../tmk_core/protocol/lufa/LUFA-git/LUFA/Drivers/USB/Class/Device/../../Core/AVR8/../AVR8/Endpoint_AVR8.h **** 					CheckBytes <<= 1;
 104:../../tmk_core/protocol/lufa/LUFA-git/LUFA/Drivers/USB/Class/Device/../../Core/AVR8/../AVR8/Endpoint_AVR8.h **** 				}
 105:../../tmk_core/protocol/lufa/LUFA-git/LUFA/Drivers/USB/Class/Device/../../Core/AVR8/../AVR8/Endpoint_AVR8.h **** 
 106:../../tmk_core/protocol/lufa/LUFA-git/LUFA/Drivers/USB/Class/Device/../../Core/AVR8/../AVR8/Endpoint_AVR8.h **** 				return (MaskVal << EPSIZE0);
 107:../../tmk_core/protocol/lufa/LUFA-git/LUFA/Drivers/USB/Class/Device/../../Core/AVR8/../AVR8/Endpoint_AVR8.h **** 			}
 108:../../tmk_core/protocol/lufa/LUFA-git/LUFA/Drivers/USB/Class/Device/../../Core/AVR8/../AVR8/Endpoint_AVR8.h **** 
 109:../../tmk_core/protocol/lufa/LUFA-git/LUFA/Drivers/USB/Class/Device/../../Core/AVR8/../AVR8/Endpoint_AVR8.h **** 		/* Function Prototypes: */
 110:../../tmk_core/protocol/lufa/LUFA-git/LUFA/Drivers/USB/Class/Device/../../Core/AVR8/../AVR8/Endpoint_AVR8.h **** 			void Endpoint_ClearEndpoints(void);
 111:../../tmk_core/protocol/lufa/LUFA-git/LUFA/Drivers/USB/Class/Device/../../Core/AVR8/../AVR8/Endpoint_AVR8.h **** 			bool Endpoint_ConfigureEndpoint_Prv(const uint8_t Number,
 112:../../tmk_core/protocol/lufa/LUFA-git/LUFA/Drivers/USB/Class/Device/../../Core/AVR8/../AVR8/Endpoint_AVR8.h **** 			                                    const uint8_t UECFG0XData,
 113:../../tmk_core/protocol/lufa/LUFA-git/LUFA/Drivers/USB/Class/Device/../../Core/AVR8/../AVR8/Endpoint_AVR8.h **** 			                                    const uint8_t UECFG1XData);
 114:../../tmk_core/protocol/lufa/LUFA-git/LUFA/Drivers/USB/Class/Device/../../Core/AVR8/../AVR8/Endpoint_AVR8.h **** 
 115:../../tmk_core/protocol/lufa/LUFA-git/LUFA/Drivers/USB/Class/Device/../../Core/AVR8/../AVR8/Endpoint_AVR8.h **** 	#endif
 116:../../tmk_core/protocol/lufa/LUFA-git/LUFA/Drivers/USB/Class/Device/../../Core/AVR8/../AVR8/Endpoint_AVR8.h **** 
 117:../../tmk_core/protocol/lufa/LUFA-git/LUFA/Drivers/USB/Class/Device/../../Core/AVR8/../AVR8/Endpoint_AVR8.h **** 	/* Public Interface - May be used in end-application: */
 118:../../tmk_core/protocol/lufa/LUFA-git/LUFA/Drivers/USB/Class/Device/../../Core/AVR8/../AVR8/Endpoint_AVR8.h **** 		/* Macros: */
 119:../../tmk_core/protocol/lufa/LUFA-git/LUFA/Drivers/USB/Class/Device/../../Core/AVR8/../AVR8/Endpoint_AVR8.h **** 			#if (!defined(FIXED_CONTROL_ENDPOINT_SIZE) || defined(__DOXYGEN__))
 120:../../tmk_core/protocol/lufa/LUFA-git/LUFA/Drivers/USB/Class/Device/../../Core/AVR8/../AVR8/Endpoint_AVR8.h **** 				/** Default size of the default control endpoint's bank, until altered by the control endpoint 
 121:../../tmk_core/protocol/lufa/LUFA-git/LUFA/Drivers/USB/Class/Device/../../Core/AVR8/../AVR8/Endpoint_AVR8.h **** 				 *  value in the device descriptor. Not available if the \c FIXED_CONTROL_ENDPOINT_SIZE token i
 122:../../tmk_core/protocol/lufa/LUFA-git/LUFA/Drivers/USB/Class/Device/../../Core/AVR8/../AVR8/Endpoint_AVR8.h **** 				 */
 123:../../tmk_core/protocol/lufa/LUFA-git/LUFA/Drivers/USB/Class/Device/../../Core/AVR8/../AVR8/Endpoint_AVR8.h **** 				#define ENDPOINT_CONTROLEP_DEFAULT_SIZE     8
 124:../../tmk_core/protocol/lufa/LUFA-git/LUFA/Drivers/USB/Class/Device/../../Core/AVR8/../AVR8/Endpoint_AVR8.h **** 			#endif
 125:../../tmk_core/protocol/lufa/LUFA-git/LUFA/Drivers/USB/Class/Device/../../Core/AVR8/../AVR8/Endpoint_AVR8.h **** 
 126:../../tmk_core/protocol/lufa/LUFA-git/LUFA/Drivers/USB/Class/Device/../../Core/AVR8/../AVR8/Endpoint_AVR8.h **** 			#if !defined(CONTROL_ONLY_DEVICE) || defined(__DOXYGEN__)
 127:../../tmk_core/protocol/lufa/LUFA-git/LUFA/Drivers/USB/Class/Device/../../Core/AVR8/../AVR8/Endpoint_AVR8.h **** 				#if defined(USB_SERIES_4_AVR) || defined(USB_SERIES_6_AVR) || defined(USB_SERIES_7_AVR) || defi
 128:../../tmk_core/protocol/lufa/LUFA-git/LUFA/Drivers/USB/Class/Device/../../Core/AVR8/../AVR8/Endpoint_AVR8.h **** 					/** Total number of endpoints (including the default control endpoint at address 0) which may
 129:../../tmk_core/protocol/lufa/LUFA-git/LUFA/Drivers/USB/Class/Device/../../Core/AVR8/../AVR8/Endpoint_AVR8.h **** 					 *  be used in the device. Different USB AVR models support different amounts of endpoints,
 130:../../tmk_core/protocol/lufa/LUFA-git/LUFA/Drivers/USB/Class/Device/../../Core/AVR8/../AVR8/Endpoint_AVR8.h **** 					 *  this value reflects the maximum number of endpoints for the currently selected AVR model.
 131:../../tmk_core/protocol/lufa/LUFA-git/LUFA/Drivers/USB/Class/Device/../../Core/AVR8/../AVR8/Endpoint_AVR8.h **** 					 */
 132:../../tmk_core/protocol/lufa/LUFA-git/LUFA/Drivers/USB/Class/Device/../../Core/AVR8/../AVR8/Endpoint_AVR8.h **** 					#define ENDPOINT_TOTAL_ENDPOINTS        7
 133:../../tmk_core/protocol/lufa/LUFA-git/LUFA/Drivers/USB/Class/Device/../../Core/AVR8/../AVR8/Endpoint_AVR8.h **** 				#else
 134:../../tmk_core/protocol/lufa/LUFA-git/LUFA/Drivers/USB/Class/Device/../../Core/AVR8/../AVR8/Endpoint_AVR8.h **** 					#define ENDPOINT_TOTAL_ENDPOINTS        5
 135:../../tmk_core/protocol/lufa/LUFA-git/LUFA/Drivers/USB/Class/Device/../../Core/AVR8/../AVR8/Endpoint_AVR8.h **** 				#endif
 136:../../tmk_core/protocol/lufa/LUFA-git/LUFA/Drivers/USB/Class/Device/../../Core/AVR8/../AVR8/Endpoint_AVR8.h **** 			#else
 137:../../tmk_core/protocol/lufa/LUFA-git/LUFA/Drivers/USB/Class/Device/../../Core/AVR8/../AVR8/Endpoint_AVR8.h **** 				#define ENDPOINT_TOTAL_ENDPOINTS            1
 138:../../tmk_core/protocol/lufa/LUFA-git/LUFA/Drivers/USB/Class/Device/../../Core/AVR8/../AVR8/Endpoint_AVR8.h **** 			#endif
 139:../../tmk_core/protocol/lufa/LUFA-git/LUFA/Drivers/USB/Class/Device/../../Core/AVR8/../AVR8/Endpoint_AVR8.h **** 
 140:../../tmk_core/protocol/lufa/LUFA-git/LUFA/Drivers/USB/Class/Device/../../Core/AVR8/../AVR8/Endpoint_AVR8.h **** 		/* Enums: */
 141:../../tmk_core/protocol/lufa/LUFA-git/LUFA/Drivers/USB/Class/Device/../../Core/AVR8/../AVR8/Endpoint_AVR8.h **** 			/** Enum for the possible error return codes of the \ref Endpoint_WaitUntilReady() function.
 142:../../tmk_core/protocol/lufa/LUFA-git/LUFA/Drivers/USB/Class/Device/../../Core/AVR8/../AVR8/Endpoint_AVR8.h **** 			 *
 143:../../tmk_core/protocol/lufa/LUFA-git/LUFA/Drivers/USB/Class/Device/../../Core/AVR8/../AVR8/Endpoint_AVR8.h **** 			 *  \ingroup Group_EndpointRW_AVR8
 144:../../tmk_core/protocol/lufa/LUFA-git/LUFA/Drivers/USB/Class/Device/../../Core/AVR8/../AVR8/Endpoint_AVR8.h **** 			 */
 145:../../tmk_core/protocol/lufa/LUFA-git/LUFA/Drivers/USB/Class/Device/../../Core/AVR8/../AVR8/Endpoint_AVR8.h **** 			enum Endpoint_WaitUntilReady_ErrorCodes_t
 146:../../tmk_core/protocol/lufa/LUFA-git/LUFA/Drivers/USB/Class/Device/../../Core/AVR8/../AVR8/Endpoint_AVR8.h **** 			{
 147:../../tmk_core/protocol/lufa/LUFA-git/LUFA/Drivers/USB/Class/Device/../../Core/AVR8/../AVR8/Endpoint_AVR8.h **** 				ENDPOINT_READYWAIT_NoError                 = 0, /**< Endpoint is ready for next packet, no erro
 148:../../tmk_core/protocol/lufa/LUFA-git/LUFA/Drivers/USB/Class/Device/../../Core/AVR8/../AVR8/Endpoint_AVR8.h **** 				ENDPOINT_READYWAIT_EndpointStalled         = 1, /**< The endpoint was stalled during the stream
 149:../../tmk_core/protocol/lufa/LUFA-git/LUFA/Drivers/USB/Class/Device/../../Core/AVR8/../AVR8/Endpoint_AVR8.h **** 				                                                 *   transfer by the host or device.
 150:../../tmk_core/protocol/lufa/LUFA-git/LUFA/Drivers/USB/Class/Device/../../Core/AVR8/../AVR8/Endpoint_AVR8.h **** 				                                                 */
 151:../../tmk_core/protocol/lufa/LUFA-git/LUFA/Drivers/USB/Class/Device/../../Core/AVR8/../AVR8/Endpoint_AVR8.h **** 				ENDPOINT_READYWAIT_DeviceDisconnected      = 2,	/**< Device was disconnected from the host whil
 152:../../tmk_core/protocol/lufa/LUFA-git/LUFA/Drivers/USB/Class/Device/../../Core/AVR8/../AVR8/Endpoint_AVR8.h **** 				                                                 *   waiting for the endpoint to become ready.
 153:../../tmk_core/protocol/lufa/LUFA-git/LUFA/Drivers/USB/Class/Device/../../Core/AVR8/../AVR8/Endpoint_AVR8.h **** 				                                                 */
 154:../../tmk_core/protocol/lufa/LUFA-git/LUFA/Drivers/USB/Class/Device/../../Core/AVR8/../AVR8/Endpoint_AVR8.h **** 				ENDPOINT_READYWAIT_BusSuspended            = 3, /**< The USB bus has been suspended by the host
 155:../../tmk_core/protocol/lufa/LUFA-git/LUFA/Drivers/USB/Class/Device/../../Core/AVR8/../AVR8/Endpoint_AVR8.h **** 				                                                 *   no USB endpoint traffic can occur until th
 156:../../tmk_core/protocol/lufa/LUFA-git/LUFA/Drivers/USB/Class/Device/../../Core/AVR8/../AVR8/Endpoint_AVR8.h **** 				                                                 *   has resumed.
 157:../../tmk_core/protocol/lufa/LUFA-git/LUFA/Drivers/USB/Class/Device/../../Core/AVR8/../AVR8/Endpoint_AVR8.h **** 				                                                 */
 158:../../tmk_core/protocol/lufa/LUFA-git/LUFA/Drivers/USB/Class/Device/../../Core/AVR8/../AVR8/Endpoint_AVR8.h **** 				ENDPOINT_READYWAIT_Timeout                 = 4, /**< The host failed to accept or send the next
 159:../../tmk_core/protocol/lufa/LUFA-git/LUFA/Drivers/USB/Class/Device/../../Core/AVR8/../AVR8/Endpoint_AVR8.h **** 				                                                 *   within the software timeout period set by 
 160:../../tmk_core/protocol/lufa/LUFA-git/LUFA/Drivers/USB/Class/Device/../../Core/AVR8/../AVR8/Endpoint_AVR8.h **** 				                                                 *   \ref USB_STREAM_TIMEOUT_MS macro.
 161:../../tmk_core/protocol/lufa/LUFA-git/LUFA/Drivers/USB/Class/Device/../../Core/AVR8/../AVR8/Endpoint_AVR8.h **** 				                                                 */
 162:../../tmk_core/protocol/lufa/LUFA-git/LUFA/Drivers/USB/Class/Device/../../Core/AVR8/../AVR8/Endpoint_AVR8.h **** 			};
 163:../../tmk_core/protocol/lufa/LUFA-git/LUFA/Drivers/USB/Class/Device/../../Core/AVR8/../AVR8/Endpoint_AVR8.h **** 
 164:../../tmk_core/protocol/lufa/LUFA-git/LUFA/Drivers/USB/Class/Device/../../Core/AVR8/../AVR8/Endpoint_AVR8.h **** 		/* Inline Functions: */
 165:../../tmk_core/protocol/lufa/LUFA-git/LUFA/Drivers/USB/Class/Device/../../Core/AVR8/../AVR8/Endpoint_AVR8.h **** 			/** Configures the specified endpoint address with the given endpoint type, bank size and number
 166:../../tmk_core/protocol/lufa/LUFA-git/LUFA/Drivers/USB/Class/Device/../../Core/AVR8/../AVR8/Endpoint_AVR8.h **** 			 *  banks. Once configured, the endpoint may be read from or written to, depending on its direct
 167:../../tmk_core/protocol/lufa/LUFA-git/LUFA/Drivers/USB/Class/Device/../../Core/AVR8/../AVR8/Endpoint_AVR8.h **** 			 *
 168:../../tmk_core/protocol/lufa/LUFA-git/LUFA/Drivers/USB/Class/Device/../../Core/AVR8/../AVR8/Endpoint_AVR8.h **** 			 *  \param[in] Address    Endpoint address to configure.
 169:../../tmk_core/protocol/lufa/LUFA-git/LUFA/Drivers/USB/Class/Device/../../Core/AVR8/../AVR8/Endpoint_AVR8.h **** 			 *
 170:../../tmk_core/protocol/lufa/LUFA-git/LUFA/Drivers/USB/Class/Device/../../Core/AVR8/../AVR8/Endpoint_AVR8.h **** 			 *  \param[in] Type       Type of endpoint to configure, a \c EP_TYPE_* mask. Not all endpoint t
 171:../../tmk_core/protocol/lufa/LUFA-git/LUFA/Drivers/USB/Class/Device/../../Core/AVR8/../AVR8/Endpoint_AVR8.h **** 			 *                        are available on Low Speed USB devices - refer to the USB 2.0 specific
 172:../../tmk_core/protocol/lufa/LUFA-git/LUFA/Drivers/USB/Class/Device/../../Core/AVR8/../AVR8/Endpoint_AVR8.h **** 			 *
 173:../../tmk_core/protocol/lufa/LUFA-git/LUFA/Drivers/USB/Class/Device/../../Core/AVR8/../AVR8/Endpoint_AVR8.h **** 			 *  \param[in] Size       Size of the endpoint's bank, where packets are stored before they are 
 174:../../tmk_core/protocol/lufa/LUFA-git/LUFA/Drivers/USB/Class/Device/../../Core/AVR8/../AVR8/Endpoint_AVR8.h **** 			 *                        to the USB host, or after they have been received from the USB host (d
 175:../../tmk_core/protocol/lufa/LUFA-git/LUFA/Drivers/USB/Class/Device/../../Core/AVR8/../AVR8/Endpoint_AVR8.h **** 			 *                        the endpoint's data direction). The bank size must indicate the maximu
 176:../../tmk_core/protocol/lufa/LUFA-git/LUFA/Drivers/USB/Class/Device/../../Core/AVR8/../AVR8/Endpoint_AVR8.h **** 			 *                        that the endpoint can handle.
 177:../../tmk_core/protocol/lufa/LUFA-git/LUFA/Drivers/USB/Class/Device/../../Core/AVR8/../AVR8/Endpoint_AVR8.h **** 			 *
 178:../../tmk_core/protocol/lufa/LUFA-git/LUFA/Drivers/USB/Class/Device/../../Core/AVR8/../AVR8/Endpoint_AVR8.h **** 			 *  \param[in] Banks      Number of banks to use for the endpoint being configured.
 179:../../tmk_core/protocol/lufa/LUFA-git/LUFA/Drivers/USB/Class/Device/../../Core/AVR8/../AVR8/Endpoint_AVR8.h **** 			 *
 180:../../tmk_core/protocol/lufa/LUFA-git/LUFA/Drivers/USB/Class/Device/../../Core/AVR8/../AVR8/Endpoint_AVR8.h **** 			 *  \attention When the \c ORDERED_EP_CONFIG compile time option is used, Endpoints <b>must</b> 
 181:../../tmk_core/protocol/lufa/LUFA-git/LUFA/Drivers/USB/Class/Device/../../Core/AVR8/../AVR8/Endpoint_AVR8.h **** 			 *             ascending order, or bank corruption will occur.
 182:../../tmk_core/protocol/lufa/LUFA-git/LUFA/Drivers/USB/Class/Device/../../Core/AVR8/../AVR8/Endpoint_AVR8.h **** 			 *
 183:../../tmk_core/protocol/lufa/LUFA-git/LUFA/Drivers/USB/Class/Device/../../Core/AVR8/../AVR8/Endpoint_AVR8.h **** 			 *  \note Different endpoints may have different maximum packet sizes based on the endpoint's in
 184:../../tmk_core/protocol/lufa/LUFA-git/LUFA/Drivers/USB/Class/Device/../../Core/AVR8/../AVR8/Endpoint_AVR8.h **** 			 *        refer to the chosen microcontroller model's datasheet to determine the maximum bank si
 185:../../tmk_core/protocol/lufa/LUFA-git/LUFA/Drivers/USB/Class/Device/../../Core/AVR8/../AVR8/Endpoint_AVR8.h **** 			 *        \n\n
 186:../../tmk_core/protocol/lufa/LUFA-git/LUFA/Drivers/USB/Class/Device/../../Core/AVR8/../AVR8/Endpoint_AVR8.h **** 			 *
 187:../../tmk_core/protocol/lufa/LUFA-git/LUFA/Drivers/USB/Class/Device/../../Core/AVR8/../AVR8/Endpoint_AVR8.h **** 			 *  \note The default control endpoint should not be manually configured by the user application
 188:../../tmk_core/protocol/lufa/LUFA-git/LUFA/Drivers/USB/Class/Device/../../Core/AVR8/../AVR8/Endpoint_AVR8.h **** 			 *        it is automatically configured by the library internally.
 189:../../tmk_core/protocol/lufa/LUFA-git/LUFA/Drivers/USB/Class/Device/../../Core/AVR8/../AVR8/Endpoint_AVR8.h **** 			 *        \n\n
 190:../../tmk_core/protocol/lufa/LUFA-git/LUFA/Drivers/USB/Class/Device/../../Core/AVR8/../AVR8/Endpoint_AVR8.h **** 			 *
 191:../../tmk_core/protocol/lufa/LUFA-git/LUFA/Drivers/USB/Class/Device/../../Core/AVR8/../AVR8/Endpoint_AVR8.h **** 			 *  \note This routine will automatically select the specified endpoint upon success. Upon failu
 192:../../tmk_core/protocol/lufa/LUFA-git/LUFA/Drivers/USB/Class/Device/../../Core/AVR8/../AVR8/Endpoint_AVR8.h **** 			 *        which failed to reconfigure correctly will be selected.
 193:../../tmk_core/protocol/lufa/LUFA-git/LUFA/Drivers/USB/Class/Device/../../Core/AVR8/../AVR8/Endpoint_AVR8.h **** 			 *
 194:../../tmk_core/protocol/lufa/LUFA-git/LUFA/Drivers/USB/Class/Device/../../Core/AVR8/../AVR8/Endpoint_AVR8.h **** 			 *  \return Boolean \c true if the configuration succeeded, \c false otherwise.
 195:../../tmk_core/protocol/lufa/LUFA-git/LUFA/Drivers/USB/Class/Device/../../Core/AVR8/../AVR8/Endpoint_AVR8.h **** 			 */
 196:../../tmk_core/protocol/lufa/LUFA-git/LUFA/Drivers/USB/Class/Device/../../Core/AVR8/../AVR8/Endpoint_AVR8.h **** 			static inline bool Endpoint_ConfigureEndpoint(const uint8_t Address,
 197:../../tmk_core/protocol/lufa/LUFA-git/LUFA/Drivers/USB/Class/Device/../../Core/AVR8/../AVR8/Endpoint_AVR8.h **** 			                                              const uint8_t Type,
 198:../../tmk_core/protocol/lufa/LUFA-git/LUFA/Drivers/USB/Class/Device/../../Core/AVR8/../AVR8/Endpoint_AVR8.h **** 			                                              const uint16_t Size,
 199:../../tmk_core/protocol/lufa/LUFA-git/LUFA/Drivers/USB/Class/Device/../../Core/AVR8/../AVR8/Endpoint_AVR8.h **** 			                                              const uint8_t Banks) ATTR_ALWAYS_INLINE;
 200:../../tmk_core/protocol/lufa/LUFA-git/LUFA/Drivers/USB/Class/Device/../../Core/AVR8/../AVR8/Endpoint_AVR8.h **** 			static inline bool Endpoint_ConfigureEndpoint(const uint8_t Address,
 201:../../tmk_core/protocol/lufa/LUFA-git/LUFA/Drivers/USB/Class/Device/../../Core/AVR8/../AVR8/Endpoint_AVR8.h **** 			                                              const uint8_t Type,
 202:../../tmk_core/protocol/lufa/LUFA-git/LUFA/Drivers/USB/Class/Device/../../Core/AVR8/../AVR8/Endpoint_AVR8.h **** 			                                              const uint16_t Size,
 203:../../tmk_core/protocol/lufa/LUFA-git/LUFA/Drivers/USB/Class/Device/../../Core/AVR8/../AVR8/Endpoint_AVR8.h **** 			                                              const uint8_t Banks)
 204:../../tmk_core/protocol/lufa/LUFA-git/LUFA/Drivers/USB/Class/Device/../../Core/AVR8/../AVR8/Endpoint_AVR8.h **** 			{
 205:../../tmk_core/protocol/lufa/LUFA-git/LUFA/Drivers/USB/Class/Device/../../Core/AVR8/../AVR8/Endpoint_AVR8.h **** 				uint8_t Number = (Address & ENDPOINT_EPNUM_MASK);
 206:../../tmk_core/protocol/lufa/LUFA-git/LUFA/Drivers/USB/Class/Device/../../Core/AVR8/../AVR8/Endpoint_AVR8.h **** 
 207:../../tmk_core/protocol/lufa/LUFA-git/LUFA/Drivers/USB/Class/Device/../../Core/AVR8/../AVR8/Endpoint_AVR8.h **** 				if (Number >= ENDPOINT_TOTAL_ENDPOINTS)
 208:../../tmk_core/protocol/lufa/LUFA-git/LUFA/Drivers/USB/Class/Device/../../Core/AVR8/../AVR8/Endpoint_AVR8.h **** 				  return false;
 209:../../tmk_core/protocol/lufa/LUFA-git/LUFA/Drivers/USB/Class/Device/../../Core/AVR8/../AVR8/Endpoint_AVR8.h **** 
 210:../../tmk_core/protocol/lufa/LUFA-git/LUFA/Drivers/USB/Class/Device/../../Core/AVR8/../AVR8/Endpoint_AVR8.h **** 				return Endpoint_ConfigureEndpoint_Prv(Number,
 211:../../tmk_core/protocol/lufa/LUFA-git/LUFA/Drivers/USB/Class/Device/../../Core/AVR8/../AVR8/Endpoint_AVR8.h **** 				                                      ((Type << EPTYPE0) | ((Address & ENDPOINT_DIR_IN) ? (1 <<
 212:../../tmk_core/protocol/lufa/LUFA-git/LUFA/Drivers/USB/Class/Device/../../Core/AVR8/../AVR8/Endpoint_AVR8.h **** 				                                      ((1 << ALLOC) | ((Banks > 1) ? (1 << EPBK0) : 0) | Endpoi
 213:../../tmk_core/protocol/lufa/LUFA-git/LUFA/Drivers/USB/Class/Device/../../Core/AVR8/../AVR8/Endpoint_AVR8.h **** 			}
 214:../../tmk_core/protocol/lufa/LUFA-git/LUFA/Drivers/USB/Class/Device/../../Core/AVR8/../AVR8/Endpoint_AVR8.h **** 
 215:../../tmk_core/protocol/lufa/LUFA-git/LUFA/Drivers/USB/Class/Device/../../Core/AVR8/../AVR8/Endpoint_AVR8.h **** 			/** Indicates the number of bytes currently stored in the current endpoint's selected bank.
 216:../../tmk_core/protocol/lufa/LUFA-git/LUFA/Drivers/USB/Class/Device/../../Core/AVR8/../AVR8/Endpoint_AVR8.h **** 			 *
 217:../../tmk_core/protocol/lufa/LUFA-git/LUFA/Drivers/USB/Class/Device/../../Core/AVR8/../AVR8/Endpoint_AVR8.h **** 			 *  \ingroup Group_EndpointRW_AVR8
 218:../../tmk_core/protocol/lufa/LUFA-git/LUFA/Drivers/USB/Class/Device/../../Core/AVR8/../AVR8/Endpoint_AVR8.h **** 			 *
 219:../../tmk_core/protocol/lufa/LUFA-git/LUFA/Drivers/USB/Class/Device/../../Core/AVR8/../AVR8/Endpoint_AVR8.h **** 			 *  \return Total number of bytes in the currently selected Endpoint's FIFO buffer.
 220:../../tmk_core/protocol/lufa/LUFA-git/LUFA/Drivers/USB/Class/Device/../../Core/AVR8/../AVR8/Endpoint_AVR8.h **** 			 */
 221:../../tmk_core/protocol/lufa/LUFA-git/LUFA/Drivers/USB/Class/Device/../../Core/AVR8/../AVR8/Endpoint_AVR8.h **** 			static inline uint16_t Endpoint_BytesInEndpoint(void) ATTR_WARN_UNUSED_RESULT ATTR_ALWAYS_INLINE
 222:../../tmk_core/protocol/lufa/LUFA-git/LUFA/Drivers/USB/Class/Device/../../Core/AVR8/../AVR8/Endpoint_AVR8.h **** 			static inline uint16_t Endpoint_BytesInEndpoint(void)
 223:../../tmk_core/protocol/lufa/LUFA-git/LUFA/Drivers/USB/Class/Device/../../Core/AVR8/../AVR8/Endpoint_AVR8.h **** 			{
 224:../../tmk_core/protocol/lufa/LUFA-git/LUFA/Drivers/USB/Class/Device/../../Core/AVR8/../AVR8/Endpoint_AVR8.h **** 				#if (defined(USB_SERIES_6_AVR) || defined(USB_SERIES_7_AVR))
 225:../../tmk_core/protocol/lufa/LUFA-git/LUFA/Drivers/USB/Class/Device/../../Core/AVR8/../AVR8/Endpoint_AVR8.h **** 					return UEBCX;
 226:../../tmk_core/protocol/lufa/LUFA-git/LUFA/Drivers/USB/Class/Device/../../Core/AVR8/../AVR8/Endpoint_AVR8.h **** 				#elif defined(USB_SERIES_4_AVR)
 227:../../tmk_core/protocol/lufa/LUFA-git/LUFA/Drivers/USB/Class/Device/../../Core/AVR8/../AVR8/Endpoint_AVR8.h **** 					return (((uint16_t)UEBCHX << 8) | UEBCLX);
 228:../../tmk_core/protocol/lufa/LUFA-git/LUFA/Drivers/USB/Class/Device/../../Core/AVR8/../AVR8/Endpoint_AVR8.h **** 				#elif defined(USB_SERIES_2_AVR)
 229:../../tmk_core/protocol/lufa/LUFA-git/LUFA/Drivers/USB/Class/Device/../../Core/AVR8/../AVR8/Endpoint_AVR8.h **** 					return UEBCLX;
 230:../../tmk_core/protocol/lufa/LUFA-git/LUFA/Drivers/USB/Class/Device/../../Core/AVR8/../AVR8/Endpoint_AVR8.h **** 				#endif
 231:../../tmk_core/protocol/lufa/LUFA-git/LUFA/Drivers/USB/Class/Device/../../Core/AVR8/../AVR8/Endpoint_AVR8.h **** 			}
 232:../../tmk_core/protocol/lufa/LUFA-git/LUFA/Drivers/USB/Class/Device/../../Core/AVR8/../AVR8/Endpoint_AVR8.h **** 
 233:../../tmk_core/protocol/lufa/LUFA-git/LUFA/Drivers/USB/Class/Device/../../Core/AVR8/../AVR8/Endpoint_AVR8.h **** 			/** Determines the currently selected endpoint's direction.
 234:../../tmk_core/protocol/lufa/LUFA-git/LUFA/Drivers/USB/Class/Device/../../Core/AVR8/../AVR8/Endpoint_AVR8.h **** 			 *
 235:../../tmk_core/protocol/lufa/LUFA-git/LUFA/Drivers/USB/Class/Device/../../Core/AVR8/../AVR8/Endpoint_AVR8.h **** 			 *  \return The currently selected endpoint's direction, as a \c ENDPOINT_DIR_* mask.
 236:../../tmk_core/protocol/lufa/LUFA-git/LUFA/Drivers/USB/Class/Device/../../Core/AVR8/../AVR8/Endpoint_AVR8.h **** 			 */
 237:../../tmk_core/protocol/lufa/LUFA-git/LUFA/Drivers/USB/Class/Device/../../Core/AVR8/../AVR8/Endpoint_AVR8.h **** 			static inline uint8_t Endpoint_GetEndpointDirection(void) ATTR_WARN_UNUSED_RESULT ATTR_ALWAYS_IN
 238:../../tmk_core/protocol/lufa/LUFA-git/LUFA/Drivers/USB/Class/Device/../../Core/AVR8/../AVR8/Endpoint_AVR8.h **** 			static inline uint8_t Endpoint_GetEndpointDirection(void)
 239:../../tmk_core/protocol/lufa/LUFA-git/LUFA/Drivers/USB/Class/Device/../../Core/AVR8/../AVR8/Endpoint_AVR8.h **** 			{
 240:../../tmk_core/protocol/lufa/LUFA-git/LUFA/Drivers/USB/Class/Device/../../Core/AVR8/../AVR8/Endpoint_AVR8.h **** 				return (UECFG0X & (1 << EPDIR)) ? ENDPOINT_DIR_IN : ENDPOINT_DIR_OUT;
 241:../../tmk_core/protocol/lufa/LUFA-git/LUFA/Drivers/USB/Class/Device/../../Core/AVR8/../AVR8/Endpoint_AVR8.h **** 			}
 242:../../tmk_core/protocol/lufa/LUFA-git/LUFA/Drivers/USB/Class/Device/../../Core/AVR8/../AVR8/Endpoint_AVR8.h **** 
 243:../../tmk_core/protocol/lufa/LUFA-git/LUFA/Drivers/USB/Class/Device/../../Core/AVR8/../AVR8/Endpoint_AVR8.h **** 			/** Get the endpoint address of the currently selected endpoint. This is typically used to save
 244:../../tmk_core/protocol/lufa/LUFA-git/LUFA/Drivers/USB/Class/Device/../../Core/AVR8/../AVR8/Endpoint_AVR8.h **** 			 *  the currently selected endpoint so that it can be restored after another endpoint has been
 245:../../tmk_core/protocol/lufa/LUFA-git/LUFA/Drivers/USB/Class/Device/../../Core/AVR8/../AVR8/Endpoint_AVR8.h **** 			 *  manipulated.
 246:../../tmk_core/protocol/lufa/LUFA-git/LUFA/Drivers/USB/Class/Device/../../Core/AVR8/../AVR8/Endpoint_AVR8.h **** 			 *
 247:../../tmk_core/protocol/lufa/LUFA-git/LUFA/Drivers/USB/Class/Device/../../Core/AVR8/../AVR8/Endpoint_AVR8.h **** 			 *  \return Index of the currently selected endpoint.
 248:../../tmk_core/protocol/lufa/LUFA-git/LUFA/Drivers/USB/Class/Device/../../Core/AVR8/../AVR8/Endpoint_AVR8.h **** 			 */
 249:../../tmk_core/protocol/lufa/LUFA-git/LUFA/Drivers/USB/Class/Device/../../Core/AVR8/../AVR8/Endpoint_AVR8.h **** 			static inline uint8_t Endpoint_GetCurrentEndpoint(void) ATTR_WARN_UNUSED_RESULT ATTR_ALWAYS_INLI
 250:../../tmk_core/protocol/lufa/LUFA-git/LUFA/Drivers/USB/Class/Device/../../Core/AVR8/../AVR8/Endpoint_AVR8.h **** 			static inline uint8_t Endpoint_GetCurrentEndpoint(void)
 251:../../tmk_core/protocol/lufa/LUFA-git/LUFA/Drivers/USB/Class/Device/../../Core/AVR8/../AVR8/Endpoint_AVR8.h **** 			{
 252:../../tmk_core/protocol/lufa/LUFA-git/LUFA/Drivers/USB/Class/Device/../../Core/AVR8/../AVR8/Endpoint_AVR8.h **** 				#if !defined(CONTROL_ONLY_DEVICE)
 253:../../tmk_core/protocol/lufa/LUFA-git/LUFA/Drivers/USB/Class/Device/../../Core/AVR8/../AVR8/Endpoint_AVR8.h **** 					return ((UENUM & ENDPOINT_EPNUM_MASK) | Endpoint_GetEndpointDirection());
 254:../../tmk_core/protocol/lufa/LUFA-git/LUFA/Drivers/USB/Class/Device/../../Core/AVR8/../AVR8/Endpoint_AVR8.h **** 				#else
 255:../../tmk_core/protocol/lufa/LUFA-git/LUFA/Drivers/USB/Class/Device/../../Core/AVR8/../AVR8/Endpoint_AVR8.h **** 					return ENDPOINT_CONTROLEP;
 256:../../tmk_core/protocol/lufa/LUFA-git/LUFA/Drivers/USB/Class/Device/../../Core/AVR8/../AVR8/Endpoint_AVR8.h **** 				#endif
 257:../../tmk_core/protocol/lufa/LUFA-git/LUFA/Drivers/USB/Class/Device/../../Core/AVR8/../AVR8/Endpoint_AVR8.h **** 			}
 258:../../tmk_core/protocol/lufa/LUFA-git/LUFA/Drivers/USB/Class/Device/../../Core/AVR8/../AVR8/Endpoint_AVR8.h **** 
 259:../../tmk_core/protocol/lufa/LUFA-git/LUFA/Drivers/USB/Class/Device/../../Core/AVR8/../AVR8/Endpoint_AVR8.h **** 			/** Selects the given endpoint address.
 260:../../tmk_core/protocol/lufa/LUFA-git/LUFA/Drivers/USB/Class/Device/../../Core/AVR8/../AVR8/Endpoint_AVR8.h **** 			 *
 261:../../tmk_core/protocol/lufa/LUFA-git/LUFA/Drivers/USB/Class/Device/../../Core/AVR8/../AVR8/Endpoint_AVR8.h **** 			 *  Any endpoint operations which do not require the endpoint address to be indicated will opera
 262:../../tmk_core/protocol/lufa/LUFA-git/LUFA/Drivers/USB/Class/Device/../../Core/AVR8/../AVR8/Endpoint_AVR8.h **** 			 *  the currently selected endpoint.
 263:../../tmk_core/protocol/lufa/LUFA-git/LUFA/Drivers/USB/Class/Device/../../Core/AVR8/../AVR8/Endpoint_AVR8.h **** 			 *
 264:../../tmk_core/protocol/lufa/LUFA-git/LUFA/Drivers/USB/Class/Device/../../Core/AVR8/../AVR8/Endpoint_AVR8.h **** 			 *  \param[in] Address Endpoint address to select.
 265:../../tmk_core/protocol/lufa/LUFA-git/LUFA/Drivers/USB/Class/Device/../../Core/AVR8/../AVR8/Endpoint_AVR8.h **** 			 */
 266:../../tmk_core/protocol/lufa/LUFA-git/LUFA/Drivers/USB/Class/Device/../../Core/AVR8/../AVR8/Endpoint_AVR8.h **** 			static inline void Endpoint_SelectEndpoint(const uint8_t Address) ATTR_ALWAYS_INLINE;
 267:../../tmk_core/protocol/lufa/LUFA-git/LUFA/Drivers/USB/Class/Device/../../Core/AVR8/../AVR8/Endpoint_AVR8.h **** 			static inline void Endpoint_SelectEndpoint(const uint8_t Address)
 268:../../tmk_core/protocol/lufa/LUFA-git/LUFA/Drivers/USB/Class/Device/../../Core/AVR8/../AVR8/Endpoint_AVR8.h **** 			{
 269:../../tmk_core/protocol/lufa/LUFA-git/LUFA/Drivers/USB/Class/Device/../../Core/AVR8/../AVR8/Endpoint_AVR8.h **** 				#if !defined(CONTROL_ONLY_DEVICE)
 270:../../tmk_core/protocol/lufa/LUFA-git/LUFA/Drivers/USB/Class/Device/../../Core/AVR8/../AVR8/Endpoint_AVR8.h **** 					UENUM = (Address & ENDPOINT_EPNUM_MASK);
 119               		.loc 2 270 0 is_stmt 1
 120 001c 8181      		ldd r24,Z+1
 121               	.LVL8:
 122 001e 8F70      		andi r24,lo8(15)
 123 0020 8093 E900 		sts 233,r24
 124               	.LBE90:
 125               	.LBE89:
 152:../../tmk_core/protocol/lufa/LUFA-git/LUFA/Drivers/USB/Class/Device/CDCClassDevice.c **** 	  return ENDPOINT_RWSTREAM_DeviceDisconnected;
 153:../../tmk_core/protocol/lufa/LUFA-git/LUFA/Drivers/USB/Class/Device/CDCClassDevice.c **** 
 154:../../tmk_core/protocol/lufa/LUFA-git/LUFA/Drivers/USB/Class/Device/CDCClassDevice.c **** 	Endpoint_SelectEndpoint(CDCInterfaceInfo->Config.DataINEndpoint.Address);
 155:../../tmk_core/protocol/lufa/LUFA-git/LUFA/Drivers/USB/Class/Device/CDCClassDevice.c **** 	return Endpoint_Write_Stream_LE(String, strlen(String), NULL);
 126               		.loc 1 155 0
 127 0024 FD01      		movw r30,r26
 128               	.LVL9:
 129               		0:
 130 0026 0190      		ld __tmp_reg__,Z+
 131 0028 0020      		tst __tmp_reg__
 132 002a 01F4      		brne 0b
 133 002c 3197      		sbiw r30,1
 134 002e BF01      		movw r22,r30
 135               	.LVL10:
 136 0030 6A1B      		sub r22,r26
 137 0032 7B0B      		sbc r23,r27
 138 0034 40E0      		ldi r20,0
 139 0036 50E0      		ldi r21,0
 140 0038 CD01      		movw r24,r26
 141 003a 0C94 0000 		jmp Endpoint_Write_Stream_LE
 142               	.LVL11:
 143               	.L10:
 156:../../tmk_core/protocol/lufa/LUFA-git/LUFA/Drivers/USB/Class/Device/CDCClassDevice.c **** }
 144               		.loc 1 156 0
 145 003e 82E0      		ldi r24,lo8(2)
 146               	.LVL12:
 147 0040 0895      		ret
 148               		.cfi_endproc
 149               	.LFE103:
 151               		.section	.text.CDC_Device_SendData,"ax",@progbits
 152               	.global	CDC_Device_SendData
 154               	CDC_Device_SendData:
 155               	.LFB104:
 157:../../tmk_core/protocol/lufa/LUFA-git/LUFA/Drivers/USB/Class/Device/CDCClassDevice.c **** 
 158:../../tmk_core/protocol/lufa/LUFA-git/LUFA/Drivers/USB/Class/Device/CDCClassDevice.c **** uint8_t CDC_Device_SendData(USB_ClassInfo_CDC_Device_t* const CDCInterfaceInfo,
 159:../../tmk_core/protocol/lufa/LUFA-git/LUFA/Drivers/USB/Class/Device/CDCClassDevice.c ****                             const void* const Buffer,
 160:../../tmk_core/protocol/lufa/LUFA-git/LUFA/Drivers/USB/Class/Device/CDCClassDevice.c ****                             const uint16_t Length)
 161:../../tmk_core/protocol/lufa/LUFA-git/LUFA/Drivers/USB/Class/Device/CDCClassDevice.c **** {
 156               		.loc 1 161 0
 157               		.cfi_startproc
 158               	.LVL13:
 159               	/* prologue: function */
 160               	/* frame size = 0 */
 161               	/* stack size = 0 */
 162               	.L__stack_usage = 0
 163 0000 FC01      		movw r30,r24
 164 0002 9B01      		movw r18,r22
 165 0004 BA01      		movw r22,r20
 166               	.LVL14:
 162:../../tmk_core/protocol/lufa/LUFA-git/LUFA/Drivers/USB/Class/Device/CDCClassDevice.c **** 	if ((USB_DeviceState != DEVICE_STATE_Configured) || !(CDCInterfaceInfo->State.LineEncoding.BaudRat
 167               		.loc 1 162 0
 168 0006 8091 0000 		lds r24,USB_DeviceState
 169               	.LVL15:
 170 000a 8430      		cpi r24,lo8(4)
 171 000c 01F4      		brne .L15
 172               		.loc 1 162 0 is_stmt 0 discriminator 1
 173 000e 8489      		ldd r24,Z+20
 174 0010 9589      		ldd r25,Z+21
 175 0012 A689      		ldd r26,Z+22
 176 0014 B789      		ldd r27,Z+23
 177 0016 892B      		or r24,r25
 178 0018 8A2B      		or r24,r26
 179 001a 8B2B      		or r24,r27
 180 001c 01F0      		breq .L15
 181               	.LVL16:
 182               	.LBB91:
 183               	.LBB92:
 184               		.loc 2 270 0 is_stmt 1
 185 001e 9181      		ldd r25,Z+1
 186 0020 9F70      		andi r25,lo8(15)
 187 0022 9093 E900 		sts 233,r25
 188               	.LVL17:
 189               	.LBE92:
 190               	.LBE91:
 163:../../tmk_core/protocol/lufa/LUFA-git/LUFA/Drivers/USB/Class/Device/CDCClassDevice.c **** 	  return ENDPOINT_RWSTREAM_DeviceDisconnected;
 164:../../tmk_core/protocol/lufa/LUFA-git/LUFA/Drivers/USB/Class/Device/CDCClassDevice.c **** 
 165:../../tmk_core/protocol/lufa/LUFA-git/LUFA/Drivers/USB/Class/Device/CDCClassDevice.c **** 	Endpoint_SelectEndpoint(CDCInterfaceInfo->Config.DataINEndpoint.Address);
 166:../../tmk_core/protocol/lufa/LUFA-git/LUFA/Drivers/USB/Class/Device/CDCClassDevice.c **** 	return Endpoint_Write_Stream_LE(Buffer, Length, NULL);
 191               		.loc 1 166 0
 192 0026 40E0      		ldi r20,0
 193 0028 50E0      		ldi r21,0
 194               	.LVL18:
 195 002a C901      		movw r24,r18
 196 002c 0C94 0000 		jmp Endpoint_Write_Stream_LE
 197               	.LVL19:
 198               	.L15:
 167:../../tmk_core/protocol/lufa/LUFA-git/LUFA/Drivers/USB/Class/Device/CDCClassDevice.c **** }
 199               		.loc 1 167 0
 200 0030 82E0      		ldi r24,lo8(2)
 201 0032 0895      		ret
 202               		.cfi_endproc
 203               	.LFE104:
 205               		.section	.text.CDC_Device_SendByte,"ax",@progbits
 206               	.global	CDC_Device_SendByte
 208               	CDC_Device_SendByte:
 209               	.LFB105:
 168:../../tmk_core/protocol/lufa/LUFA-git/LUFA/Drivers/USB/Class/Device/CDCClassDevice.c **** 
 169:../../tmk_core/protocol/lufa/LUFA-git/LUFA/Drivers/USB/Class/Device/CDCClassDevice.c **** uint8_t CDC_Device_SendByte(USB_ClassInfo_CDC_Device_t* const CDCInterfaceInfo,
 170:../../tmk_core/protocol/lufa/LUFA-git/LUFA/Drivers/USB/Class/Device/CDCClassDevice.c ****                             const uint8_t Data)
 171:../../tmk_core/protocol/lufa/LUFA-git/LUFA/Drivers/USB/Class/Device/CDCClassDevice.c **** {
 210               		.loc 1 171 0
 211               		.cfi_startproc
 212               	.LVL20:
 213 0000 0F93      		push r16
 214               	.LCFI2:
 215               		.cfi_def_cfa_offset 3
 216               		.cfi_offset 16, -2
 217 0002 1F93      		push r17
 218               	.LCFI3:
 219               		.cfi_def_cfa_offset 4
 220               		.cfi_offset 17, -3
 221 0004 CF93      		push r28
 222               	.LCFI4:
 223               		.cfi_def_cfa_offset 5
 224               		.cfi_offset 28, -4
 225               	/* prologue: function */
 226               	/* frame size = 0 */
 227               	/* stack size = 3 */
 228               	.L__stack_usage = 3
 172:../../tmk_core/protocol/lufa/LUFA-git/LUFA/Drivers/USB/Class/Device/CDCClassDevice.c **** 	if ((USB_DeviceState != DEVICE_STATE_Configured) || !(CDCInterfaceInfo->State.LineEncoding.BaudRat
 229               		.loc 1 172 0
 230 0006 2091 0000 		lds r18,USB_DeviceState
 231 000a 2430      		cpi r18,lo8(4)
 232 000c 01F4      		brne .L24
 233               		.loc 1 172 0 is_stmt 0 discriminator 1
 234 000e FC01      		movw r30,r24
 235 0010 0489      		ldd r16,Z+20
 236 0012 1589      		ldd r17,Z+21
 237 0014 2689      		ldd r18,Z+22
 238 0016 3789      		ldd r19,Z+23
 239 0018 012B      		or r16,r17
 240 001a 022B      		or r16,r18
 241 001c 032B      		or r16,r19
 242 001e 01F0      		breq .L24
 243 0020 C62F      		mov r28,r22
 244               	.LVL21:
 245               	.LBB93:
 246               	.LBB94:
 247               		.loc 2 270 0 is_stmt 1
 248 0022 8181      		ldd r24,Z+1
 249               	.LVL22:
 250 0024 8F70      		andi r24,lo8(15)
 251               	.LVL23:
 252 0026 8093 E900 		sts 233,r24
 253               	.LVL24:
 254               	.LBE94:
 255               	.LBE93:
 256               	.LBB95:
 257               	.LBB96:
 271:../../tmk_core/protocol/lufa/LUFA-git/LUFA/Drivers/USB/Class/Device/../../Core/AVR8/../AVR8/Endpoint_AVR8.h **** 				#endif
 272:../../tmk_core/protocol/lufa/LUFA-git/LUFA/Drivers/USB/Class/Device/../../Core/AVR8/../AVR8/Endpoint_AVR8.h **** 			}
 273:../../tmk_core/protocol/lufa/LUFA-git/LUFA/Drivers/USB/Class/Device/../../Core/AVR8/../AVR8/Endpoint_AVR8.h **** 
 274:../../tmk_core/protocol/lufa/LUFA-git/LUFA/Drivers/USB/Class/Device/../../Core/AVR8/../AVR8/Endpoint_AVR8.h **** 			/** Resets the endpoint bank FIFO. This clears all the endpoint banks and resets the USB control
 275:../../tmk_core/protocol/lufa/LUFA-git/LUFA/Drivers/USB/Class/Device/../../Core/AVR8/../AVR8/Endpoint_AVR8.h **** 			 *  data In and Out pointers to the bank's contents.
 276:../../tmk_core/protocol/lufa/LUFA-git/LUFA/Drivers/USB/Class/Device/../../Core/AVR8/../AVR8/Endpoint_AVR8.h **** 			 *
 277:../../tmk_core/protocol/lufa/LUFA-git/LUFA/Drivers/USB/Class/Device/../../Core/AVR8/../AVR8/Endpoint_AVR8.h **** 			 *  \param[in] Address  Endpoint address whose FIFO buffers are to be reset.
 278:../../tmk_core/protocol/lufa/LUFA-git/LUFA/Drivers/USB/Class/Device/../../Core/AVR8/../AVR8/Endpoint_AVR8.h **** 			 */
 279:../../tmk_core/protocol/lufa/LUFA-git/LUFA/Drivers/USB/Class/Device/../../Core/AVR8/../AVR8/Endpoint_AVR8.h **** 			static inline void Endpoint_ResetEndpoint(const uint8_t Address) ATTR_ALWAYS_INLINE;
 280:../../tmk_core/protocol/lufa/LUFA-git/LUFA/Drivers/USB/Class/Device/../../Core/AVR8/../AVR8/Endpoint_AVR8.h **** 			static inline void Endpoint_ResetEndpoint(const uint8_t Address)
 281:../../tmk_core/protocol/lufa/LUFA-git/LUFA/Drivers/USB/Class/Device/../../Core/AVR8/../AVR8/Endpoint_AVR8.h **** 			{
 282:../../tmk_core/protocol/lufa/LUFA-git/LUFA/Drivers/USB/Class/Device/../../Core/AVR8/../AVR8/Endpoint_AVR8.h **** 				UERST = (1 << (Address & ENDPOINT_EPNUM_MASK));
 283:../../tmk_core/protocol/lufa/LUFA-git/LUFA/Drivers/USB/Class/Device/../../Core/AVR8/../AVR8/Endpoint_AVR8.h **** 				UERST = 0;
 284:../../tmk_core/protocol/lufa/LUFA-git/LUFA/Drivers/USB/Class/Device/../../Core/AVR8/../AVR8/Endpoint_AVR8.h **** 			}
 285:../../tmk_core/protocol/lufa/LUFA-git/LUFA/Drivers/USB/Class/Device/../../Core/AVR8/../AVR8/Endpoint_AVR8.h **** 
 286:../../tmk_core/protocol/lufa/LUFA-git/LUFA/Drivers/USB/Class/Device/../../Core/AVR8/../AVR8/Endpoint_AVR8.h **** 			/** Enables the currently selected endpoint so that data can be sent and received through it to
 287:../../tmk_core/protocol/lufa/LUFA-git/LUFA/Drivers/USB/Class/Device/../../Core/AVR8/../AVR8/Endpoint_AVR8.h **** 			 *  and from a host.
 288:../../tmk_core/protocol/lufa/LUFA-git/LUFA/Drivers/USB/Class/Device/../../Core/AVR8/../AVR8/Endpoint_AVR8.h **** 			 *
 289:../../tmk_core/protocol/lufa/LUFA-git/LUFA/Drivers/USB/Class/Device/../../Core/AVR8/../AVR8/Endpoint_AVR8.h **** 			 *  \note Endpoints must first be configured properly via \ref Endpoint_ConfigureEndpoint().
 290:../../tmk_core/protocol/lufa/LUFA-git/LUFA/Drivers/USB/Class/Device/../../Core/AVR8/../AVR8/Endpoint_AVR8.h **** 			 */
 291:../../tmk_core/protocol/lufa/LUFA-git/LUFA/Drivers/USB/Class/Device/../../Core/AVR8/../AVR8/Endpoint_AVR8.h **** 			static inline void Endpoint_EnableEndpoint(void) ATTR_ALWAYS_INLINE;
 292:../../tmk_core/protocol/lufa/LUFA-git/LUFA/Drivers/USB/Class/Device/../../Core/AVR8/../AVR8/Endpoint_AVR8.h **** 			static inline void Endpoint_EnableEndpoint(void)
 293:../../tmk_core/protocol/lufa/LUFA-git/LUFA/Drivers/USB/Class/Device/../../Core/AVR8/../AVR8/Endpoint_AVR8.h **** 			{
 294:../../tmk_core/protocol/lufa/LUFA-git/LUFA/Drivers/USB/Class/Device/../../Core/AVR8/../AVR8/Endpoint_AVR8.h **** 				UECONX |= (1 << EPEN);
 295:../../tmk_core/protocol/lufa/LUFA-git/LUFA/Drivers/USB/Class/Device/../../Core/AVR8/../AVR8/Endpoint_AVR8.h **** 			}
 296:../../tmk_core/protocol/lufa/LUFA-git/LUFA/Drivers/USB/Class/Device/../../Core/AVR8/../AVR8/Endpoint_AVR8.h **** 
 297:../../tmk_core/protocol/lufa/LUFA-git/LUFA/Drivers/USB/Class/Device/../../Core/AVR8/../AVR8/Endpoint_AVR8.h **** 			/** Disables the currently selected endpoint so that data cannot be sent and received through it
 298:../../tmk_core/protocol/lufa/LUFA-git/LUFA/Drivers/USB/Class/Device/../../Core/AVR8/../AVR8/Endpoint_AVR8.h **** 			 *  to and from a host.
 299:../../tmk_core/protocol/lufa/LUFA-git/LUFA/Drivers/USB/Class/Device/../../Core/AVR8/../AVR8/Endpoint_AVR8.h **** 			 */
 300:../../tmk_core/protocol/lufa/LUFA-git/LUFA/Drivers/USB/Class/Device/../../Core/AVR8/../AVR8/Endpoint_AVR8.h **** 			static inline void Endpoint_DisableEndpoint(void) ATTR_ALWAYS_INLINE;
 301:../../tmk_core/protocol/lufa/LUFA-git/LUFA/Drivers/USB/Class/Device/../../Core/AVR8/../AVR8/Endpoint_AVR8.h **** 			static inline void Endpoint_DisableEndpoint(void)
 302:../../tmk_core/protocol/lufa/LUFA-git/LUFA/Drivers/USB/Class/Device/../../Core/AVR8/../AVR8/Endpoint_AVR8.h **** 			{
 303:../../tmk_core/protocol/lufa/LUFA-git/LUFA/Drivers/USB/Class/Device/../../Core/AVR8/../AVR8/Endpoint_AVR8.h **** 				UECONX &= ~(1 << EPEN);
 304:../../tmk_core/protocol/lufa/LUFA-git/LUFA/Drivers/USB/Class/Device/../../Core/AVR8/../AVR8/Endpoint_AVR8.h **** 			}
 305:../../tmk_core/protocol/lufa/LUFA-git/LUFA/Drivers/USB/Class/Device/../../Core/AVR8/../AVR8/Endpoint_AVR8.h **** 
 306:../../tmk_core/protocol/lufa/LUFA-git/LUFA/Drivers/USB/Class/Device/../../Core/AVR8/../AVR8/Endpoint_AVR8.h **** 			/** Determines if the currently selected endpoint is enabled, but not necessarily configured.
 307:../../tmk_core/protocol/lufa/LUFA-git/LUFA/Drivers/USB/Class/Device/../../Core/AVR8/../AVR8/Endpoint_AVR8.h **** 			 *
 308:../../tmk_core/protocol/lufa/LUFA-git/LUFA/Drivers/USB/Class/Device/../../Core/AVR8/../AVR8/Endpoint_AVR8.h **** 			 * \return Boolean \c true if the currently selected endpoint is enabled, \c false otherwise.
 309:../../tmk_core/protocol/lufa/LUFA-git/LUFA/Drivers/USB/Class/Device/../../Core/AVR8/../AVR8/Endpoint_AVR8.h **** 			 */
 310:../../tmk_core/protocol/lufa/LUFA-git/LUFA/Drivers/USB/Class/Device/../../Core/AVR8/../AVR8/Endpoint_AVR8.h **** 			static inline bool Endpoint_IsEnabled(void) ATTR_WARN_UNUSED_RESULT ATTR_ALWAYS_INLINE;
 311:../../tmk_core/protocol/lufa/LUFA-git/LUFA/Drivers/USB/Class/Device/../../Core/AVR8/../AVR8/Endpoint_AVR8.h **** 			static inline bool Endpoint_IsEnabled(void)
 312:../../tmk_core/protocol/lufa/LUFA-git/LUFA/Drivers/USB/Class/Device/../../Core/AVR8/../AVR8/Endpoint_AVR8.h **** 			{
 313:../../tmk_core/protocol/lufa/LUFA-git/LUFA/Drivers/USB/Class/Device/../../Core/AVR8/../AVR8/Endpoint_AVR8.h **** 				return ((UECONX & (1 << EPEN)) ? true : false);
 314:../../tmk_core/protocol/lufa/LUFA-git/LUFA/Drivers/USB/Class/Device/../../Core/AVR8/../AVR8/Endpoint_AVR8.h **** 			}
 315:../../tmk_core/protocol/lufa/LUFA-git/LUFA/Drivers/USB/Class/Device/../../Core/AVR8/../AVR8/Endpoint_AVR8.h **** 
 316:../../tmk_core/protocol/lufa/LUFA-git/LUFA/Drivers/USB/Class/Device/../../Core/AVR8/../AVR8/Endpoint_AVR8.h **** 			/** Retrieves the number of busy banks in the currently selected endpoint, which have been queue
 317:../../tmk_core/protocol/lufa/LUFA-git/LUFA/Drivers/USB/Class/Device/../../Core/AVR8/../AVR8/Endpoint_AVR8.h **** 			 *  transmission via the \ref Endpoint_ClearIN() command, or are awaiting acknowledgment via the
 318:../../tmk_core/protocol/lufa/LUFA-git/LUFA/Drivers/USB/Class/Device/../../Core/AVR8/../AVR8/Endpoint_AVR8.h **** 			 *  \ref Endpoint_ClearOUT() command.
 319:../../tmk_core/protocol/lufa/LUFA-git/LUFA/Drivers/USB/Class/Device/../../Core/AVR8/../AVR8/Endpoint_AVR8.h **** 			 *
 320:../../tmk_core/protocol/lufa/LUFA-git/LUFA/Drivers/USB/Class/Device/../../Core/AVR8/../AVR8/Endpoint_AVR8.h **** 			 *  \ingroup Group_EndpointPacketManagement_AVR8
 321:../../tmk_core/protocol/lufa/LUFA-git/LUFA/Drivers/USB/Class/Device/../../Core/AVR8/../AVR8/Endpoint_AVR8.h **** 			 *
 322:../../tmk_core/protocol/lufa/LUFA-git/LUFA/Drivers/USB/Class/Device/../../Core/AVR8/../AVR8/Endpoint_AVR8.h **** 			 *  \return Total number of busy banks in the selected endpoint.
 323:../../tmk_core/protocol/lufa/LUFA-git/LUFA/Drivers/USB/Class/Device/../../Core/AVR8/../AVR8/Endpoint_AVR8.h **** 			 */
 324:../../tmk_core/protocol/lufa/LUFA-git/LUFA/Drivers/USB/Class/Device/../../Core/AVR8/../AVR8/Endpoint_AVR8.h **** 			static inline uint8_t Endpoint_GetBusyBanks(void) ATTR_ALWAYS_INLINE ATTR_WARN_UNUSED_RESULT;
 325:../../tmk_core/protocol/lufa/LUFA-git/LUFA/Drivers/USB/Class/Device/../../Core/AVR8/../AVR8/Endpoint_AVR8.h **** 			static inline uint8_t Endpoint_GetBusyBanks(void)
 326:../../tmk_core/protocol/lufa/LUFA-git/LUFA/Drivers/USB/Class/Device/../../Core/AVR8/../AVR8/Endpoint_AVR8.h **** 			{
 327:../../tmk_core/protocol/lufa/LUFA-git/LUFA/Drivers/USB/Class/Device/../../Core/AVR8/../AVR8/Endpoint_AVR8.h **** 				return (UESTA0X & (0x03 << NBUSYBK0));
 328:../../tmk_core/protocol/lufa/LUFA-git/LUFA/Drivers/USB/Class/Device/../../Core/AVR8/../AVR8/Endpoint_AVR8.h **** 			}
 329:../../tmk_core/protocol/lufa/LUFA-git/LUFA/Drivers/USB/Class/Device/../../Core/AVR8/../AVR8/Endpoint_AVR8.h **** 
 330:../../tmk_core/protocol/lufa/LUFA-git/LUFA/Drivers/USB/Class/Device/../../Core/AVR8/../AVR8/Endpoint_AVR8.h **** 			/** Aborts all pending IN transactions on the currently selected endpoint, once the bank
 331:../../tmk_core/protocol/lufa/LUFA-git/LUFA/Drivers/USB/Class/Device/../../Core/AVR8/../AVR8/Endpoint_AVR8.h **** 			 *  has been queued for transmission to the host via \ref Endpoint_ClearIN(). This function
 332:../../tmk_core/protocol/lufa/LUFA-git/LUFA/Drivers/USB/Class/Device/../../Core/AVR8/../AVR8/Endpoint_AVR8.h **** 			 *  will terminate all queued transactions, resetting the endpoint banks ready for a new
 333:../../tmk_core/protocol/lufa/LUFA-git/LUFA/Drivers/USB/Class/Device/../../Core/AVR8/../AVR8/Endpoint_AVR8.h **** 			 *  packet.
 334:../../tmk_core/protocol/lufa/LUFA-git/LUFA/Drivers/USB/Class/Device/../../Core/AVR8/../AVR8/Endpoint_AVR8.h **** 			 *
 335:../../tmk_core/protocol/lufa/LUFA-git/LUFA/Drivers/USB/Class/Device/../../Core/AVR8/../AVR8/Endpoint_AVR8.h **** 			 *  \ingroup Group_EndpointPacketManagement_AVR8
 336:../../tmk_core/protocol/lufa/LUFA-git/LUFA/Drivers/USB/Class/Device/../../Core/AVR8/../AVR8/Endpoint_AVR8.h **** 			 */
 337:../../tmk_core/protocol/lufa/LUFA-git/LUFA/Drivers/USB/Class/Device/../../Core/AVR8/../AVR8/Endpoint_AVR8.h **** 			static inline void Endpoint_AbortPendingIN(void)
 338:../../tmk_core/protocol/lufa/LUFA-git/LUFA/Drivers/USB/Class/Device/../../Core/AVR8/../AVR8/Endpoint_AVR8.h **** 			{
 339:../../tmk_core/protocol/lufa/LUFA-git/LUFA/Drivers/USB/Class/Device/../../Core/AVR8/../AVR8/Endpoint_AVR8.h **** 				while (Endpoint_GetBusyBanks() != 0)
 340:../../tmk_core/protocol/lufa/LUFA-git/LUFA/Drivers/USB/Class/Device/../../Core/AVR8/../AVR8/Endpoint_AVR8.h **** 				{
 341:../../tmk_core/protocol/lufa/LUFA-git/LUFA/Drivers/USB/Class/Device/../../Core/AVR8/../AVR8/Endpoint_AVR8.h **** 					UEINTX |= (1 << RXOUTI);
 342:../../tmk_core/protocol/lufa/LUFA-git/LUFA/Drivers/USB/Class/Device/../../Core/AVR8/../AVR8/Endpoint_AVR8.h **** 					while (UEINTX & (1 << RXOUTI));
 343:../../tmk_core/protocol/lufa/LUFA-git/LUFA/Drivers/USB/Class/Device/../../Core/AVR8/../AVR8/Endpoint_AVR8.h **** 				}
 344:../../tmk_core/protocol/lufa/LUFA-git/LUFA/Drivers/USB/Class/Device/../../Core/AVR8/../AVR8/Endpoint_AVR8.h **** 			}
 345:../../tmk_core/protocol/lufa/LUFA-git/LUFA/Drivers/USB/Class/Device/../../Core/AVR8/../AVR8/Endpoint_AVR8.h **** 
 346:../../tmk_core/protocol/lufa/LUFA-git/LUFA/Drivers/USB/Class/Device/../../Core/AVR8/../AVR8/Endpoint_AVR8.h **** 			/** Determines if the currently selected endpoint may be read from (if data is waiting in the en
 347:../../tmk_core/protocol/lufa/LUFA-git/LUFA/Drivers/USB/Class/Device/../../Core/AVR8/../AVR8/Endpoint_AVR8.h **** 			 *  bank and the endpoint is an OUT direction, or if the bank is not yet full if the endpoint is
 348:../../tmk_core/protocol/lufa/LUFA-git/LUFA/Drivers/USB/Class/Device/../../Core/AVR8/../AVR8/Endpoint_AVR8.h **** 			 *  direction). This function will return false if an error has occurred in the endpoint, if the
 349:../../tmk_core/protocol/lufa/LUFA-git/LUFA/Drivers/USB/Class/Device/../../Core/AVR8/../AVR8/Endpoint_AVR8.h **** 			 *  is an OUT direction and no packet (or an empty packet) has been received, or if the endpoint
 350:../../tmk_core/protocol/lufa/LUFA-git/LUFA/Drivers/USB/Class/Device/../../Core/AVR8/../AVR8/Endpoint_AVR8.h **** 			 *  direction and the endpoint bank is full.
 351:../../tmk_core/protocol/lufa/LUFA-git/LUFA/Drivers/USB/Class/Device/../../Core/AVR8/../AVR8/Endpoint_AVR8.h **** 			 *
 352:../../tmk_core/protocol/lufa/LUFA-git/LUFA/Drivers/USB/Class/Device/../../Core/AVR8/../AVR8/Endpoint_AVR8.h **** 			 *  \ingroup Group_EndpointPacketManagement_AVR8
 353:../../tmk_core/protocol/lufa/LUFA-git/LUFA/Drivers/USB/Class/Device/../../Core/AVR8/../AVR8/Endpoint_AVR8.h **** 			 *
 354:../../tmk_core/protocol/lufa/LUFA-git/LUFA/Drivers/USB/Class/Device/../../Core/AVR8/../AVR8/Endpoint_AVR8.h **** 			 *  \return Boolean \c true if the currently selected endpoint may be read from or written to, d
 355:../../tmk_core/protocol/lufa/LUFA-git/LUFA/Drivers/USB/Class/Device/../../Core/AVR8/../AVR8/Endpoint_AVR8.h **** 			 *          on its direction.
 356:../../tmk_core/protocol/lufa/LUFA-git/LUFA/Drivers/USB/Class/Device/../../Core/AVR8/../AVR8/Endpoint_AVR8.h **** 			 */
 357:../../tmk_core/protocol/lufa/LUFA-git/LUFA/Drivers/USB/Class/Device/../../Core/AVR8/../AVR8/Endpoint_AVR8.h **** 			static inline bool Endpoint_IsReadWriteAllowed(void) ATTR_WARN_UNUSED_RESULT ATTR_ALWAYS_INLINE;
 358:../../tmk_core/protocol/lufa/LUFA-git/LUFA/Drivers/USB/Class/Device/../../Core/AVR8/../AVR8/Endpoint_AVR8.h **** 			static inline bool Endpoint_IsReadWriteAllowed(void)
 359:../../tmk_core/protocol/lufa/LUFA-git/LUFA/Drivers/USB/Class/Device/../../Core/AVR8/../AVR8/Endpoint_AVR8.h **** 			{
 360:../../tmk_core/protocol/lufa/LUFA-git/LUFA/Drivers/USB/Class/Device/../../Core/AVR8/../AVR8/Endpoint_AVR8.h **** 				return ((UEINTX & (1 << RWAL)) ? true : false);
 258               		.loc 2 360 0
 259 002a 8091 E800 		lds r24,232
 260               	.LBE96:
 261               	.LBE95:
 173:../../tmk_core/protocol/lufa/LUFA-git/LUFA/Drivers/USB/Class/Device/CDCClassDevice.c **** 	  return ENDPOINT_RWSTREAM_DeviceDisconnected;
 174:../../tmk_core/protocol/lufa/LUFA-git/LUFA/Drivers/USB/Class/Device/CDCClassDevice.c **** 
 175:../../tmk_core/protocol/lufa/LUFA-git/LUFA/Drivers/USB/Class/Device/CDCClassDevice.c **** 	Endpoint_SelectEndpoint(CDCInterfaceInfo->Config.DataINEndpoint.Address);
 176:../../tmk_core/protocol/lufa/LUFA-git/LUFA/Drivers/USB/Class/Device/CDCClassDevice.c **** 
 177:../../tmk_core/protocol/lufa/LUFA-git/LUFA/Drivers/USB/Class/Device/CDCClassDevice.c **** 	if (!(Endpoint_IsReadWriteAllowed()))
 262               		.loc 1 177 0
 263 002e 85FF      		sbrs r24,5
 264 0030 00C0      		rjmp .L21
 265               	.LVL25:
 266               	.L22:
 267               	.LBB97:
 268               	.LBB98:
 361:../../tmk_core/protocol/lufa/LUFA-git/LUFA/Drivers/USB/Class/Device/../../Core/AVR8/../AVR8/Endpoint_AVR8.h **** 			}
 362:../../tmk_core/protocol/lufa/LUFA-git/LUFA/Drivers/USB/Class/Device/../../Core/AVR8/../AVR8/Endpoint_AVR8.h **** 
 363:../../tmk_core/protocol/lufa/LUFA-git/LUFA/Drivers/USB/Class/Device/../../Core/AVR8/../AVR8/Endpoint_AVR8.h **** 			/** Determines if the currently selected endpoint is configured.
 364:../../tmk_core/protocol/lufa/LUFA-git/LUFA/Drivers/USB/Class/Device/../../Core/AVR8/../AVR8/Endpoint_AVR8.h **** 			 *
 365:../../tmk_core/protocol/lufa/LUFA-git/LUFA/Drivers/USB/Class/Device/../../Core/AVR8/../AVR8/Endpoint_AVR8.h **** 			 *  \return Boolean \c true if the currently selected endpoint has been configured, \c false oth
 366:../../tmk_core/protocol/lufa/LUFA-git/LUFA/Drivers/USB/Class/Device/../../Core/AVR8/../AVR8/Endpoint_AVR8.h **** 			 */
 367:../../tmk_core/protocol/lufa/LUFA-git/LUFA/Drivers/USB/Class/Device/../../Core/AVR8/../AVR8/Endpoint_AVR8.h **** 			static inline bool Endpoint_IsConfigured(void) ATTR_WARN_UNUSED_RESULT ATTR_ALWAYS_INLINE;
 368:../../tmk_core/protocol/lufa/LUFA-git/LUFA/Drivers/USB/Class/Device/../../Core/AVR8/../AVR8/Endpoint_AVR8.h **** 			static inline bool Endpoint_IsConfigured(void)
 369:../../tmk_core/protocol/lufa/LUFA-git/LUFA/Drivers/USB/Class/Device/../../Core/AVR8/../AVR8/Endpoint_AVR8.h **** 			{
 370:../../tmk_core/protocol/lufa/LUFA-git/LUFA/Drivers/USB/Class/Device/../../Core/AVR8/../AVR8/Endpoint_AVR8.h **** 				return ((UESTA0X & (1 << CFGOK)) ? true : false);
 371:../../tmk_core/protocol/lufa/LUFA-git/LUFA/Drivers/USB/Class/Device/../../Core/AVR8/../AVR8/Endpoint_AVR8.h **** 			}
 372:../../tmk_core/protocol/lufa/LUFA-git/LUFA/Drivers/USB/Class/Device/../../Core/AVR8/../AVR8/Endpoint_AVR8.h **** 
 373:../../tmk_core/protocol/lufa/LUFA-git/LUFA/Drivers/USB/Class/Device/../../Core/AVR8/../AVR8/Endpoint_AVR8.h **** 			/** Returns a mask indicating which INTERRUPT type endpoints have interrupted - i.e. their
 374:../../tmk_core/protocol/lufa/LUFA-git/LUFA/Drivers/USB/Class/Device/../../Core/AVR8/../AVR8/Endpoint_AVR8.h **** 			 *  interrupt duration has elapsed. Which endpoints have interrupted can be determined by
 375:../../tmk_core/protocol/lufa/LUFA-git/LUFA/Drivers/USB/Class/Device/../../Core/AVR8/../AVR8/Endpoint_AVR8.h **** 			 *  masking the return value against <tt>(1 << <i>{Endpoint Number}</i>)</tt>.
 376:../../tmk_core/protocol/lufa/LUFA-git/LUFA/Drivers/USB/Class/Device/../../Core/AVR8/../AVR8/Endpoint_AVR8.h **** 			 *
 377:../../tmk_core/protocol/lufa/LUFA-git/LUFA/Drivers/USB/Class/Device/../../Core/AVR8/../AVR8/Endpoint_AVR8.h **** 			 *  \return Mask whose bits indicate which endpoints have interrupted.
 378:../../tmk_core/protocol/lufa/LUFA-git/LUFA/Drivers/USB/Class/Device/../../Core/AVR8/../AVR8/Endpoint_AVR8.h **** 			 */
 379:../../tmk_core/protocol/lufa/LUFA-git/LUFA/Drivers/USB/Class/Device/../../Core/AVR8/../AVR8/Endpoint_AVR8.h **** 			static inline uint8_t Endpoint_GetEndpointInterrupts(void) ATTR_WARN_UNUSED_RESULT ATTR_ALWAYS_I
 380:../../tmk_core/protocol/lufa/LUFA-git/LUFA/Drivers/USB/Class/Device/../../Core/AVR8/../AVR8/Endpoint_AVR8.h **** 			static inline uint8_t Endpoint_GetEndpointInterrupts(void)
 381:../../tmk_core/protocol/lufa/LUFA-git/LUFA/Drivers/USB/Class/Device/../../Core/AVR8/../AVR8/Endpoint_AVR8.h **** 			{
 382:../../tmk_core/protocol/lufa/LUFA-git/LUFA/Drivers/USB/Class/Device/../../Core/AVR8/../AVR8/Endpoint_AVR8.h **** 				return UEINT;
 383:../../tmk_core/protocol/lufa/LUFA-git/LUFA/Drivers/USB/Class/Device/../../Core/AVR8/../AVR8/Endpoint_AVR8.h **** 			}
 384:../../tmk_core/protocol/lufa/LUFA-git/LUFA/Drivers/USB/Class/Device/../../Core/AVR8/../AVR8/Endpoint_AVR8.h **** 
 385:../../tmk_core/protocol/lufa/LUFA-git/LUFA/Drivers/USB/Class/Device/../../Core/AVR8/../AVR8/Endpoint_AVR8.h **** 			/** Determines if the specified endpoint number has interrupted (valid only for INTERRUPT type
 386:../../tmk_core/protocol/lufa/LUFA-git/LUFA/Drivers/USB/Class/Device/../../Core/AVR8/../AVR8/Endpoint_AVR8.h **** 			 *  endpoints).
 387:../../tmk_core/protocol/lufa/LUFA-git/LUFA/Drivers/USB/Class/Device/../../Core/AVR8/../AVR8/Endpoint_AVR8.h **** 			 *
 388:../../tmk_core/protocol/lufa/LUFA-git/LUFA/Drivers/USB/Class/Device/../../Core/AVR8/../AVR8/Endpoint_AVR8.h **** 			 *  \param[in] Address  Address of the endpoint whose interrupt flag should be tested.
 389:../../tmk_core/protocol/lufa/LUFA-git/LUFA/Drivers/USB/Class/Device/../../Core/AVR8/../AVR8/Endpoint_AVR8.h **** 			 *
 390:../../tmk_core/protocol/lufa/LUFA-git/LUFA/Drivers/USB/Class/Device/../../Core/AVR8/../AVR8/Endpoint_AVR8.h **** 			 *  \return Boolean \c true if the specified endpoint has interrupted, \c false otherwise.
 391:../../tmk_core/protocol/lufa/LUFA-git/LUFA/Drivers/USB/Class/Device/../../Core/AVR8/../AVR8/Endpoint_AVR8.h **** 			 */
 392:../../tmk_core/protocol/lufa/LUFA-git/LUFA/Drivers/USB/Class/Device/../../Core/AVR8/../AVR8/Endpoint_AVR8.h **** 			static inline bool Endpoint_HasEndpointInterrupted(const uint8_t Address) ATTR_WARN_UNUSED_RESUL
 393:../../tmk_core/protocol/lufa/LUFA-git/LUFA/Drivers/USB/Class/Device/../../Core/AVR8/../AVR8/Endpoint_AVR8.h **** 			static inline bool Endpoint_HasEndpointInterrupted(const uint8_t Address)
 394:../../tmk_core/protocol/lufa/LUFA-git/LUFA/Drivers/USB/Class/Device/../../Core/AVR8/../AVR8/Endpoint_AVR8.h **** 			{
 395:../../tmk_core/protocol/lufa/LUFA-git/LUFA/Drivers/USB/Class/Device/../../Core/AVR8/../AVR8/Endpoint_AVR8.h **** 				return ((Endpoint_GetEndpointInterrupts() & (1 << (Address & ENDPOINT_EPNUM_MASK))) ? true : fa
 396:../../tmk_core/protocol/lufa/LUFA-git/LUFA/Drivers/USB/Class/Device/../../Core/AVR8/../AVR8/Endpoint_AVR8.h **** 			}
 397:../../tmk_core/protocol/lufa/LUFA-git/LUFA/Drivers/USB/Class/Device/../../Core/AVR8/../AVR8/Endpoint_AVR8.h **** 
 398:../../tmk_core/protocol/lufa/LUFA-git/LUFA/Drivers/USB/Class/Device/../../Core/AVR8/../AVR8/Endpoint_AVR8.h **** 			/** Determines if the selected IN endpoint is ready for a new packet to be sent to the host.
 399:../../tmk_core/protocol/lufa/LUFA-git/LUFA/Drivers/USB/Class/Device/../../Core/AVR8/../AVR8/Endpoint_AVR8.h **** 			 *
 400:../../tmk_core/protocol/lufa/LUFA-git/LUFA/Drivers/USB/Class/Device/../../Core/AVR8/../AVR8/Endpoint_AVR8.h **** 			 *  \ingroup Group_EndpointPacketManagement_AVR8
 401:../../tmk_core/protocol/lufa/LUFA-git/LUFA/Drivers/USB/Class/Device/../../Core/AVR8/../AVR8/Endpoint_AVR8.h **** 			 *
 402:../../tmk_core/protocol/lufa/LUFA-git/LUFA/Drivers/USB/Class/Device/../../Core/AVR8/../AVR8/Endpoint_AVR8.h **** 			 *  \return Boolean \c true if the current endpoint is ready for an IN packet, \c false otherwis
 403:../../tmk_core/protocol/lufa/LUFA-git/LUFA/Drivers/USB/Class/Device/../../Core/AVR8/../AVR8/Endpoint_AVR8.h **** 			 */
 404:../../tmk_core/protocol/lufa/LUFA-git/LUFA/Drivers/USB/Class/Device/../../Core/AVR8/../AVR8/Endpoint_AVR8.h **** 			static inline bool Endpoint_IsINReady(void) ATTR_WARN_UNUSED_RESULT ATTR_ALWAYS_INLINE;
 405:../../tmk_core/protocol/lufa/LUFA-git/LUFA/Drivers/USB/Class/Device/../../Core/AVR8/../AVR8/Endpoint_AVR8.h **** 			static inline bool Endpoint_IsINReady(void)
 406:../../tmk_core/protocol/lufa/LUFA-git/LUFA/Drivers/USB/Class/Device/../../Core/AVR8/../AVR8/Endpoint_AVR8.h **** 			{
 407:../../tmk_core/protocol/lufa/LUFA-git/LUFA/Drivers/USB/Class/Device/../../Core/AVR8/../AVR8/Endpoint_AVR8.h **** 				return ((UEINTX & (1 << TXINI)) ? true : false);
 408:../../tmk_core/protocol/lufa/LUFA-git/LUFA/Drivers/USB/Class/Device/../../Core/AVR8/../AVR8/Endpoint_AVR8.h **** 			}
 409:../../tmk_core/protocol/lufa/LUFA-git/LUFA/Drivers/USB/Class/Device/../../Core/AVR8/../AVR8/Endpoint_AVR8.h **** 
 410:../../tmk_core/protocol/lufa/LUFA-git/LUFA/Drivers/USB/Class/Device/../../Core/AVR8/../AVR8/Endpoint_AVR8.h **** 			/** Determines if the selected OUT endpoint has received new packet from the host.
 411:../../tmk_core/protocol/lufa/LUFA-git/LUFA/Drivers/USB/Class/Device/../../Core/AVR8/../AVR8/Endpoint_AVR8.h **** 			 *
 412:../../tmk_core/protocol/lufa/LUFA-git/LUFA/Drivers/USB/Class/Device/../../Core/AVR8/../AVR8/Endpoint_AVR8.h **** 			 *  \ingroup Group_EndpointPacketManagement_AVR8
 413:../../tmk_core/protocol/lufa/LUFA-git/LUFA/Drivers/USB/Class/Device/../../Core/AVR8/../AVR8/Endpoint_AVR8.h **** 			 *
 414:../../tmk_core/protocol/lufa/LUFA-git/LUFA/Drivers/USB/Class/Device/../../Core/AVR8/../AVR8/Endpoint_AVR8.h **** 			 *  \return Boolean \c true if current endpoint is has received an OUT packet, \c false otherwis
 415:../../tmk_core/protocol/lufa/LUFA-git/LUFA/Drivers/USB/Class/Device/../../Core/AVR8/../AVR8/Endpoint_AVR8.h **** 			 */
 416:../../tmk_core/protocol/lufa/LUFA-git/LUFA/Drivers/USB/Class/Device/../../Core/AVR8/../AVR8/Endpoint_AVR8.h **** 			static inline bool Endpoint_IsOUTReceived(void) ATTR_WARN_UNUSED_RESULT ATTR_ALWAYS_INLINE;
 417:../../tmk_core/protocol/lufa/LUFA-git/LUFA/Drivers/USB/Class/Device/../../Core/AVR8/../AVR8/Endpoint_AVR8.h **** 			static inline bool Endpoint_IsOUTReceived(void)
 418:../../tmk_core/protocol/lufa/LUFA-git/LUFA/Drivers/USB/Class/Device/../../Core/AVR8/../AVR8/Endpoint_AVR8.h **** 			{
 419:../../tmk_core/protocol/lufa/LUFA-git/LUFA/Drivers/USB/Class/Device/../../Core/AVR8/../AVR8/Endpoint_AVR8.h **** 				return ((UEINTX & (1 << RXOUTI)) ? true : false);
 420:../../tmk_core/protocol/lufa/LUFA-git/LUFA/Drivers/USB/Class/Device/../../Core/AVR8/../AVR8/Endpoint_AVR8.h **** 			}
 421:../../tmk_core/protocol/lufa/LUFA-git/LUFA/Drivers/USB/Class/Device/../../Core/AVR8/../AVR8/Endpoint_AVR8.h **** 
 422:../../tmk_core/protocol/lufa/LUFA-git/LUFA/Drivers/USB/Class/Device/../../Core/AVR8/../AVR8/Endpoint_AVR8.h **** 			/** Determines if the current CONTROL type endpoint has received a SETUP packet.
 423:../../tmk_core/protocol/lufa/LUFA-git/LUFA/Drivers/USB/Class/Device/../../Core/AVR8/../AVR8/Endpoint_AVR8.h **** 			 *
 424:../../tmk_core/protocol/lufa/LUFA-git/LUFA/Drivers/USB/Class/Device/../../Core/AVR8/../AVR8/Endpoint_AVR8.h **** 			 *  \ingroup Group_EndpointPacketManagement_AVR8
 425:../../tmk_core/protocol/lufa/LUFA-git/LUFA/Drivers/USB/Class/Device/../../Core/AVR8/../AVR8/Endpoint_AVR8.h **** 			 *
 426:../../tmk_core/protocol/lufa/LUFA-git/LUFA/Drivers/USB/Class/Device/../../Core/AVR8/../AVR8/Endpoint_AVR8.h **** 			 *  \return Boolean \c true if the selected endpoint has received a SETUP packet, \c false other
 427:../../tmk_core/protocol/lufa/LUFA-git/LUFA/Drivers/USB/Class/Device/../../Core/AVR8/../AVR8/Endpoint_AVR8.h **** 			 */
 428:../../tmk_core/protocol/lufa/LUFA-git/LUFA/Drivers/USB/Class/Device/../../Core/AVR8/../AVR8/Endpoint_AVR8.h **** 			static inline bool Endpoint_IsSETUPReceived(void) ATTR_WARN_UNUSED_RESULT ATTR_ALWAYS_INLINE;
 429:../../tmk_core/protocol/lufa/LUFA-git/LUFA/Drivers/USB/Class/Device/../../Core/AVR8/../AVR8/Endpoint_AVR8.h **** 			static inline bool Endpoint_IsSETUPReceived(void)
 430:../../tmk_core/protocol/lufa/LUFA-git/LUFA/Drivers/USB/Class/Device/../../Core/AVR8/../AVR8/Endpoint_AVR8.h **** 			{
 431:../../tmk_core/protocol/lufa/LUFA-git/LUFA/Drivers/USB/Class/Device/../../Core/AVR8/../AVR8/Endpoint_AVR8.h **** 				return ((UEINTX & (1 << RXSTPI)) ? true : false);
 432:../../tmk_core/protocol/lufa/LUFA-git/LUFA/Drivers/USB/Class/Device/../../Core/AVR8/../AVR8/Endpoint_AVR8.h **** 			}
 433:../../tmk_core/protocol/lufa/LUFA-git/LUFA/Drivers/USB/Class/Device/../../Core/AVR8/../AVR8/Endpoint_AVR8.h **** 
 434:../../tmk_core/protocol/lufa/LUFA-git/LUFA/Drivers/USB/Class/Device/../../Core/AVR8/../AVR8/Endpoint_AVR8.h **** 			/** Clears a received SETUP packet on the currently selected CONTROL type endpoint, freeing up t
 435:../../tmk_core/protocol/lufa/LUFA-git/LUFA/Drivers/USB/Class/Device/../../Core/AVR8/../AVR8/Endpoint_AVR8.h **** 			 *  endpoint for the next packet.
 436:../../tmk_core/protocol/lufa/LUFA-git/LUFA/Drivers/USB/Class/Device/../../Core/AVR8/../AVR8/Endpoint_AVR8.h **** 			 *
 437:../../tmk_core/protocol/lufa/LUFA-git/LUFA/Drivers/USB/Class/Device/../../Core/AVR8/../AVR8/Endpoint_AVR8.h **** 			 *  \ingroup Group_EndpointPacketManagement_AVR8
 438:../../tmk_core/protocol/lufa/LUFA-git/LUFA/Drivers/USB/Class/Device/../../Core/AVR8/../AVR8/Endpoint_AVR8.h **** 			 *
 439:../../tmk_core/protocol/lufa/LUFA-git/LUFA/Drivers/USB/Class/Device/../../Core/AVR8/../AVR8/Endpoint_AVR8.h **** 			 *  \note This is not applicable for non CONTROL type endpoints.
 440:../../tmk_core/protocol/lufa/LUFA-git/LUFA/Drivers/USB/Class/Device/../../Core/AVR8/../AVR8/Endpoint_AVR8.h **** 			 */
 441:../../tmk_core/protocol/lufa/LUFA-git/LUFA/Drivers/USB/Class/Device/../../Core/AVR8/../AVR8/Endpoint_AVR8.h **** 			static inline void Endpoint_ClearSETUP(void) ATTR_ALWAYS_INLINE;
 442:../../tmk_core/protocol/lufa/LUFA-git/LUFA/Drivers/USB/Class/Device/../../Core/AVR8/../AVR8/Endpoint_AVR8.h **** 			static inline void Endpoint_ClearSETUP(void)
 443:../../tmk_core/protocol/lufa/LUFA-git/LUFA/Drivers/USB/Class/Device/../../Core/AVR8/../AVR8/Endpoint_AVR8.h **** 			{
 444:../../tmk_core/protocol/lufa/LUFA-git/LUFA/Drivers/USB/Class/Device/../../Core/AVR8/../AVR8/Endpoint_AVR8.h **** 				UEINTX &= ~(1 << RXSTPI);
 445:../../tmk_core/protocol/lufa/LUFA-git/LUFA/Drivers/USB/Class/Device/../../Core/AVR8/../AVR8/Endpoint_AVR8.h **** 			}
 446:../../tmk_core/protocol/lufa/LUFA-git/LUFA/Drivers/USB/Class/Device/../../Core/AVR8/../AVR8/Endpoint_AVR8.h **** 
 447:../../tmk_core/protocol/lufa/LUFA-git/LUFA/Drivers/USB/Class/Device/../../Core/AVR8/../AVR8/Endpoint_AVR8.h **** 			/** Sends an IN packet to the host on the currently selected endpoint, freeing up the endpoint f
 448:../../tmk_core/protocol/lufa/LUFA-git/LUFA/Drivers/USB/Class/Device/../../Core/AVR8/../AVR8/Endpoint_AVR8.h **** 			 *  next packet and switching to the alternative endpoint bank if double banked.
 449:../../tmk_core/protocol/lufa/LUFA-git/LUFA/Drivers/USB/Class/Device/../../Core/AVR8/../AVR8/Endpoint_AVR8.h **** 			 *
 450:../../tmk_core/protocol/lufa/LUFA-git/LUFA/Drivers/USB/Class/Device/../../Core/AVR8/../AVR8/Endpoint_AVR8.h **** 			 *  \ingroup Group_EndpointPacketManagement_AVR8
 451:../../tmk_core/protocol/lufa/LUFA-git/LUFA/Drivers/USB/Class/Device/../../Core/AVR8/../AVR8/Endpoint_AVR8.h **** 			 */
 452:../../tmk_core/protocol/lufa/LUFA-git/LUFA/Drivers/USB/Class/Device/../../Core/AVR8/../AVR8/Endpoint_AVR8.h **** 			static inline void Endpoint_ClearIN(void) ATTR_ALWAYS_INLINE;
 453:../../tmk_core/protocol/lufa/LUFA-git/LUFA/Drivers/USB/Class/Device/../../Core/AVR8/../AVR8/Endpoint_AVR8.h **** 			static inline void Endpoint_ClearIN(void)
 454:../../tmk_core/protocol/lufa/LUFA-git/LUFA/Drivers/USB/Class/Device/../../Core/AVR8/../AVR8/Endpoint_AVR8.h **** 			{
 455:../../tmk_core/protocol/lufa/LUFA-git/LUFA/Drivers/USB/Class/Device/../../Core/AVR8/../AVR8/Endpoint_AVR8.h **** 				#if !defined(CONTROL_ONLY_DEVICE)
 456:../../tmk_core/protocol/lufa/LUFA-git/LUFA/Drivers/USB/Class/Device/../../Core/AVR8/../AVR8/Endpoint_AVR8.h **** 					UEINTX &= ~((1 << TXINI) | (1 << FIFOCON));
 457:../../tmk_core/protocol/lufa/LUFA-git/LUFA/Drivers/USB/Class/Device/../../Core/AVR8/../AVR8/Endpoint_AVR8.h **** 				#else
 458:../../tmk_core/protocol/lufa/LUFA-git/LUFA/Drivers/USB/Class/Device/../../Core/AVR8/../AVR8/Endpoint_AVR8.h **** 					UEINTX &= ~(1 << TXINI);
 459:../../tmk_core/protocol/lufa/LUFA-git/LUFA/Drivers/USB/Class/Device/../../Core/AVR8/../AVR8/Endpoint_AVR8.h **** 				#endif
 460:../../tmk_core/protocol/lufa/LUFA-git/LUFA/Drivers/USB/Class/Device/../../Core/AVR8/../AVR8/Endpoint_AVR8.h **** 			}
 461:../../tmk_core/protocol/lufa/LUFA-git/LUFA/Drivers/USB/Class/Device/../../Core/AVR8/../AVR8/Endpoint_AVR8.h **** 
 462:../../tmk_core/protocol/lufa/LUFA-git/LUFA/Drivers/USB/Class/Device/../../Core/AVR8/../AVR8/Endpoint_AVR8.h **** 			/** Acknowledges an OUT packet to the host on the currently selected endpoint, freeing up the en
 463:../../tmk_core/protocol/lufa/LUFA-git/LUFA/Drivers/USB/Class/Device/../../Core/AVR8/../AVR8/Endpoint_AVR8.h **** 			 *  for the next packet and switching to the alternative endpoint bank if double banked.
 464:../../tmk_core/protocol/lufa/LUFA-git/LUFA/Drivers/USB/Class/Device/../../Core/AVR8/../AVR8/Endpoint_AVR8.h **** 			 *
 465:../../tmk_core/protocol/lufa/LUFA-git/LUFA/Drivers/USB/Class/Device/../../Core/AVR8/../AVR8/Endpoint_AVR8.h **** 			 *  \ingroup Group_EndpointPacketManagement_AVR8
 466:../../tmk_core/protocol/lufa/LUFA-git/LUFA/Drivers/USB/Class/Device/../../Core/AVR8/../AVR8/Endpoint_AVR8.h **** 			 */
 467:../../tmk_core/protocol/lufa/LUFA-git/LUFA/Drivers/USB/Class/Device/../../Core/AVR8/../AVR8/Endpoint_AVR8.h **** 			static inline void Endpoint_ClearOUT(void) ATTR_ALWAYS_INLINE;
 468:../../tmk_core/protocol/lufa/LUFA-git/LUFA/Drivers/USB/Class/Device/../../Core/AVR8/../AVR8/Endpoint_AVR8.h **** 			static inline void Endpoint_ClearOUT(void)
 469:../../tmk_core/protocol/lufa/LUFA-git/LUFA/Drivers/USB/Class/Device/../../Core/AVR8/../AVR8/Endpoint_AVR8.h **** 			{
 470:../../tmk_core/protocol/lufa/LUFA-git/LUFA/Drivers/USB/Class/Device/../../Core/AVR8/../AVR8/Endpoint_AVR8.h **** 				#if !defined(CONTROL_ONLY_DEVICE)
 471:../../tmk_core/protocol/lufa/LUFA-git/LUFA/Drivers/USB/Class/Device/../../Core/AVR8/../AVR8/Endpoint_AVR8.h **** 					UEINTX &= ~((1 << RXOUTI) | (1 << FIFOCON));
 472:../../tmk_core/protocol/lufa/LUFA-git/LUFA/Drivers/USB/Class/Device/../../Core/AVR8/../AVR8/Endpoint_AVR8.h **** 				#else
 473:../../tmk_core/protocol/lufa/LUFA-git/LUFA/Drivers/USB/Class/Device/../../Core/AVR8/../AVR8/Endpoint_AVR8.h **** 					UEINTX &= ~(1 << RXOUTI);
 474:../../tmk_core/protocol/lufa/LUFA-git/LUFA/Drivers/USB/Class/Device/../../Core/AVR8/../AVR8/Endpoint_AVR8.h **** 				#endif
 475:../../tmk_core/protocol/lufa/LUFA-git/LUFA/Drivers/USB/Class/Device/../../Core/AVR8/../AVR8/Endpoint_AVR8.h **** 			}
 476:../../tmk_core/protocol/lufa/LUFA-git/LUFA/Drivers/USB/Class/Device/../../Core/AVR8/../AVR8/Endpoint_AVR8.h **** 
 477:../../tmk_core/protocol/lufa/LUFA-git/LUFA/Drivers/USB/Class/Device/../../Core/AVR8/../AVR8/Endpoint_AVR8.h **** 			/** Stalls the current endpoint, indicating to the host that a logical problem occurred with the
 478:../../tmk_core/protocol/lufa/LUFA-git/LUFA/Drivers/USB/Class/Device/../../Core/AVR8/../AVR8/Endpoint_AVR8.h **** 			 *  indicated endpoint and that the current transfer sequence should be aborted. This provides a
 479:../../tmk_core/protocol/lufa/LUFA-git/LUFA/Drivers/USB/Class/Device/../../Core/AVR8/../AVR8/Endpoint_AVR8.h **** 			 *  way for devices to indicate invalid commands to the host so that the current transfer can be
 480:../../tmk_core/protocol/lufa/LUFA-git/LUFA/Drivers/USB/Class/Device/../../Core/AVR8/../AVR8/Endpoint_AVR8.h **** 			 *  aborted and the host can begin its own recovery sequence.
 481:../../tmk_core/protocol/lufa/LUFA-git/LUFA/Drivers/USB/Class/Device/../../Core/AVR8/../AVR8/Endpoint_AVR8.h **** 			 *
 482:../../tmk_core/protocol/lufa/LUFA-git/LUFA/Drivers/USB/Class/Device/../../Core/AVR8/../AVR8/Endpoint_AVR8.h **** 			 *  The currently selected endpoint remains stalled until either the \ref Endpoint_ClearStall() 
 483:../../tmk_core/protocol/lufa/LUFA-git/LUFA/Drivers/USB/Class/Device/../../Core/AVR8/../AVR8/Endpoint_AVR8.h **** 			 *  is called, or the host issues a CLEAR FEATURE request to the device for the currently select
 484:../../tmk_core/protocol/lufa/LUFA-git/LUFA/Drivers/USB/Class/Device/../../Core/AVR8/../AVR8/Endpoint_AVR8.h **** 			 *  endpoint.
 485:../../tmk_core/protocol/lufa/LUFA-git/LUFA/Drivers/USB/Class/Device/../../Core/AVR8/../AVR8/Endpoint_AVR8.h **** 			 *
 486:../../tmk_core/protocol/lufa/LUFA-git/LUFA/Drivers/USB/Class/Device/../../Core/AVR8/../AVR8/Endpoint_AVR8.h **** 			 *  \ingroup Group_EndpointPacketManagement_AVR8
 487:../../tmk_core/protocol/lufa/LUFA-git/LUFA/Drivers/USB/Class/Device/../../Core/AVR8/../AVR8/Endpoint_AVR8.h **** 			 */
 488:../../tmk_core/protocol/lufa/LUFA-git/LUFA/Drivers/USB/Class/Device/../../Core/AVR8/../AVR8/Endpoint_AVR8.h **** 			static inline void Endpoint_StallTransaction(void) ATTR_ALWAYS_INLINE;
 489:../../tmk_core/protocol/lufa/LUFA-git/LUFA/Drivers/USB/Class/Device/../../Core/AVR8/../AVR8/Endpoint_AVR8.h **** 			static inline void Endpoint_StallTransaction(void)
 490:../../tmk_core/protocol/lufa/LUFA-git/LUFA/Drivers/USB/Class/Device/../../Core/AVR8/../AVR8/Endpoint_AVR8.h **** 			{
 491:../../tmk_core/protocol/lufa/LUFA-git/LUFA/Drivers/USB/Class/Device/../../Core/AVR8/../AVR8/Endpoint_AVR8.h **** 				UECONX |= (1 << STALLRQ);
 492:../../tmk_core/protocol/lufa/LUFA-git/LUFA/Drivers/USB/Class/Device/../../Core/AVR8/../AVR8/Endpoint_AVR8.h **** 			}
 493:../../tmk_core/protocol/lufa/LUFA-git/LUFA/Drivers/USB/Class/Device/../../Core/AVR8/../AVR8/Endpoint_AVR8.h **** 
 494:../../tmk_core/protocol/lufa/LUFA-git/LUFA/Drivers/USB/Class/Device/../../Core/AVR8/../AVR8/Endpoint_AVR8.h **** 			/** Clears the STALL condition on the currently selected endpoint.
 495:../../tmk_core/protocol/lufa/LUFA-git/LUFA/Drivers/USB/Class/Device/../../Core/AVR8/../AVR8/Endpoint_AVR8.h **** 			 *
 496:../../tmk_core/protocol/lufa/LUFA-git/LUFA/Drivers/USB/Class/Device/../../Core/AVR8/../AVR8/Endpoint_AVR8.h **** 			 *  \ingroup Group_EndpointPacketManagement_AVR8
 497:../../tmk_core/protocol/lufa/LUFA-git/LUFA/Drivers/USB/Class/Device/../../Core/AVR8/../AVR8/Endpoint_AVR8.h **** 			 */
 498:../../tmk_core/protocol/lufa/LUFA-git/LUFA/Drivers/USB/Class/Device/../../Core/AVR8/../AVR8/Endpoint_AVR8.h **** 			static inline void Endpoint_ClearStall(void) ATTR_ALWAYS_INLINE;
 499:../../tmk_core/protocol/lufa/LUFA-git/LUFA/Drivers/USB/Class/Device/../../Core/AVR8/../AVR8/Endpoint_AVR8.h **** 			static inline void Endpoint_ClearStall(void)
 500:../../tmk_core/protocol/lufa/LUFA-git/LUFA/Drivers/USB/Class/Device/../../Core/AVR8/../AVR8/Endpoint_AVR8.h **** 			{
 501:../../tmk_core/protocol/lufa/LUFA-git/LUFA/Drivers/USB/Class/Device/../../Core/AVR8/../AVR8/Endpoint_AVR8.h **** 				UECONX |= (1 << STALLRQC);
 502:../../tmk_core/protocol/lufa/LUFA-git/LUFA/Drivers/USB/Class/Device/../../Core/AVR8/../AVR8/Endpoint_AVR8.h **** 			}
 503:../../tmk_core/protocol/lufa/LUFA-git/LUFA/Drivers/USB/Class/Device/../../Core/AVR8/../AVR8/Endpoint_AVR8.h **** 
 504:../../tmk_core/protocol/lufa/LUFA-git/LUFA/Drivers/USB/Class/Device/../../Core/AVR8/../AVR8/Endpoint_AVR8.h **** 			/** Determines if the currently selected endpoint is stalled, \c false otherwise.
 505:../../tmk_core/protocol/lufa/LUFA-git/LUFA/Drivers/USB/Class/Device/../../Core/AVR8/../AVR8/Endpoint_AVR8.h **** 			 *
 506:../../tmk_core/protocol/lufa/LUFA-git/LUFA/Drivers/USB/Class/Device/../../Core/AVR8/../AVR8/Endpoint_AVR8.h **** 			 *  \ingroup Group_EndpointPacketManagement_AVR8
 507:../../tmk_core/protocol/lufa/LUFA-git/LUFA/Drivers/USB/Class/Device/../../Core/AVR8/../AVR8/Endpoint_AVR8.h **** 			 *
 508:../../tmk_core/protocol/lufa/LUFA-git/LUFA/Drivers/USB/Class/Device/../../Core/AVR8/../AVR8/Endpoint_AVR8.h **** 			 *  \return Boolean \c true if the currently selected endpoint is stalled, \c false otherwise.
 509:../../tmk_core/protocol/lufa/LUFA-git/LUFA/Drivers/USB/Class/Device/../../Core/AVR8/../AVR8/Endpoint_AVR8.h **** 			 */
 510:../../tmk_core/protocol/lufa/LUFA-git/LUFA/Drivers/USB/Class/Device/../../Core/AVR8/../AVR8/Endpoint_AVR8.h **** 			static inline bool Endpoint_IsStalled(void) ATTR_WARN_UNUSED_RESULT ATTR_ALWAYS_INLINE;
 511:../../tmk_core/protocol/lufa/LUFA-git/LUFA/Drivers/USB/Class/Device/../../Core/AVR8/../AVR8/Endpoint_AVR8.h **** 			static inline bool Endpoint_IsStalled(void)
 512:../../tmk_core/protocol/lufa/LUFA-git/LUFA/Drivers/USB/Class/Device/../../Core/AVR8/../AVR8/Endpoint_AVR8.h **** 			{
 513:../../tmk_core/protocol/lufa/LUFA-git/LUFA/Drivers/USB/Class/Device/../../Core/AVR8/../AVR8/Endpoint_AVR8.h **** 				return ((UECONX & (1 << STALLRQ)) ? true : false);
 514:../../tmk_core/protocol/lufa/LUFA-git/LUFA/Drivers/USB/Class/Device/../../Core/AVR8/../AVR8/Endpoint_AVR8.h **** 			}
 515:../../tmk_core/protocol/lufa/LUFA-git/LUFA/Drivers/USB/Class/Device/../../Core/AVR8/../AVR8/Endpoint_AVR8.h **** 
 516:../../tmk_core/protocol/lufa/LUFA-git/LUFA/Drivers/USB/Class/Device/../../Core/AVR8/../AVR8/Endpoint_AVR8.h **** 			/** Resets the data toggle of the currently selected endpoint. */
 517:../../tmk_core/protocol/lufa/LUFA-git/LUFA/Drivers/USB/Class/Device/../../Core/AVR8/../AVR8/Endpoint_AVR8.h **** 			static inline void Endpoint_ResetDataToggle(void) ATTR_ALWAYS_INLINE;
 518:../../tmk_core/protocol/lufa/LUFA-git/LUFA/Drivers/USB/Class/Device/../../Core/AVR8/../AVR8/Endpoint_AVR8.h **** 			static inline void Endpoint_ResetDataToggle(void)
 519:../../tmk_core/protocol/lufa/LUFA-git/LUFA/Drivers/USB/Class/Device/../../Core/AVR8/../AVR8/Endpoint_AVR8.h **** 			{
 520:../../tmk_core/protocol/lufa/LUFA-git/LUFA/Drivers/USB/Class/Device/../../Core/AVR8/../AVR8/Endpoint_AVR8.h **** 				UECONX |= (1 << RSTDT);
 521:../../tmk_core/protocol/lufa/LUFA-git/LUFA/Drivers/USB/Class/Device/../../Core/AVR8/../AVR8/Endpoint_AVR8.h **** 			}
 522:../../tmk_core/protocol/lufa/LUFA-git/LUFA/Drivers/USB/Class/Device/../../Core/AVR8/../AVR8/Endpoint_AVR8.h **** 
 523:../../tmk_core/protocol/lufa/LUFA-git/LUFA/Drivers/USB/Class/Device/../../Core/AVR8/../AVR8/Endpoint_AVR8.h **** 			/** Sets the direction of the currently selected endpoint.
 524:../../tmk_core/protocol/lufa/LUFA-git/LUFA/Drivers/USB/Class/Device/../../Core/AVR8/../AVR8/Endpoint_AVR8.h **** 			 *
 525:../../tmk_core/protocol/lufa/LUFA-git/LUFA/Drivers/USB/Class/Device/../../Core/AVR8/../AVR8/Endpoint_AVR8.h **** 			 *  \param[in] DirectionMask  New endpoint direction, as a \c ENDPOINT_DIR_* mask.
 526:../../tmk_core/protocol/lufa/LUFA-git/LUFA/Drivers/USB/Class/Device/../../Core/AVR8/../AVR8/Endpoint_AVR8.h **** 			 */
 527:../../tmk_core/protocol/lufa/LUFA-git/LUFA/Drivers/USB/Class/Device/../../Core/AVR8/../AVR8/Endpoint_AVR8.h **** 			static inline void Endpoint_SetEndpointDirection(const uint8_t DirectionMask) ATTR_ALWAYS_INLINE
 528:../../tmk_core/protocol/lufa/LUFA-git/LUFA/Drivers/USB/Class/Device/../../Core/AVR8/../AVR8/Endpoint_AVR8.h **** 			static inline void Endpoint_SetEndpointDirection(const uint8_t DirectionMask)
 529:../../tmk_core/protocol/lufa/LUFA-git/LUFA/Drivers/USB/Class/Device/../../Core/AVR8/../AVR8/Endpoint_AVR8.h **** 			{
 530:../../tmk_core/protocol/lufa/LUFA-git/LUFA/Drivers/USB/Class/Device/../../Core/AVR8/../AVR8/Endpoint_AVR8.h **** 				UECFG0X = ((UECFG0X & ~(1 << EPDIR)) | (DirectionMask ? (1 << EPDIR) : 0));
 531:../../tmk_core/protocol/lufa/LUFA-git/LUFA/Drivers/USB/Class/Device/../../Core/AVR8/../AVR8/Endpoint_AVR8.h **** 			}
 532:../../tmk_core/protocol/lufa/LUFA-git/LUFA/Drivers/USB/Class/Device/../../Core/AVR8/../AVR8/Endpoint_AVR8.h **** 
 533:../../tmk_core/protocol/lufa/LUFA-git/LUFA/Drivers/USB/Class/Device/../../Core/AVR8/../AVR8/Endpoint_AVR8.h **** 			/** Reads one byte from the currently selected endpoint's bank, for OUT direction endpoints.
 534:../../tmk_core/protocol/lufa/LUFA-git/LUFA/Drivers/USB/Class/Device/../../Core/AVR8/../AVR8/Endpoint_AVR8.h **** 			 *
 535:../../tmk_core/protocol/lufa/LUFA-git/LUFA/Drivers/USB/Class/Device/../../Core/AVR8/../AVR8/Endpoint_AVR8.h **** 			 *  \ingroup Group_EndpointPrimitiveRW_AVR8
 536:../../tmk_core/protocol/lufa/LUFA-git/LUFA/Drivers/USB/Class/Device/../../Core/AVR8/../AVR8/Endpoint_AVR8.h **** 			 *
 537:../../tmk_core/protocol/lufa/LUFA-git/LUFA/Drivers/USB/Class/Device/../../Core/AVR8/../AVR8/Endpoint_AVR8.h **** 			 *  \return Next byte in the currently selected endpoint's FIFO buffer.
 538:../../tmk_core/protocol/lufa/LUFA-git/LUFA/Drivers/USB/Class/Device/../../Core/AVR8/../AVR8/Endpoint_AVR8.h **** 			 */
 539:../../tmk_core/protocol/lufa/LUFA-git/LUFA/Drivers/USB/Class/Device/../../Core/AVR8/../AVR8/Endpoint_AVR8.h **** 			static inline uint8_t Endpoint_Read_8(void) ATTR_WARN_UNUSED_RESULT ATTR_ALWAYS_INLINE;
 540:../../tmk_core/protocol/lufa/LUFA-git/LUFA/Drivers/USB/Class/Device/../../Core/AVR8/../AVR8/Endpoint_AVR8.h **** 			static inline uint8_t Endpoint_Read_8(void)
 541:../../tmk_core/protocol/lufa/LUFA-git/LUFA/Drivers/USB/Class/Device/../../Core/AVR8/../AVR8/Endpoint_AVR8.h **** 			{
 542:../../tmk_core/protocol/lufa/LUFA-git/LUFA/Drivers/USB/Class/Device/../../Core/AVR8/../AVR8/Endpoint_AVR8.h **** 				return UEDATX;
 543:../../tmk_core/protocol/lufa/LUFA-git/LUFA/Drivers/USB/Class/Device/../../Core/AVR8/../AVR8/Endpoint_AVR8.h **** 			}
 544:../../tmk_core/protocol/lufa/LUFA-git/LUFA/Drivers/USB/Class/Device/../../Core/AVR8/../AVR8/Endpoint_AVR8.h **** 
 545:../../tmk_core/protocol/lufa/LUFA-git/LUFA/Drivers/USB/Class/Device/../../Core/AVR8/../AVR8/Endpoint_AVR8.h **** 			/** Writes one byte to the currently selected endpoint's bank, for IN direction endpoints.
 546:../../tmk_core/protocol/lufa/LUFA-git/LUFA/Drivers/USB/Class/Device/../../Core/AVR8/../AVR8/Endpoint_AVR8.h **** 			 *
 547:../../tmk_core/protocol/lufa/LUFA-git/LUFA/Drivers/USB/Class/Device/../../Core/AVR8/../AVR8/Endpoint_AVR8.h **** 			 *  \ingroup Group_EndpointPrimitiveRW_AVR8
 548:../../tmk_core/protocol/lufa/LUFA-git/LUFA/Drivers/USB/Class/Device/../../Core/AVR8/../AVR8/Endpoint_AVR8.h **** 			 *
 549:../../tmk_core/protocol/lufa/LUFA-git/LUFA/Drivers/USB/Class/Device/../../Core/AVR8/../AVR8/Endpoint_AVR8.h **** 			 *  \param[in] Data  Data to write into the the currently selected endpoint's FIFO buffer.
 550:../../tmk_core/protocol/lufa/LUFA-git/LUFA/Drivers/USB/Class/Device/../../Core/AVR8/../AVR8/Endpoint_AVR8.h **** 			 */
 551:../../tmk_core/protocol/lufa/LUFA-git/LUFA/Drivers/USB/Class/Device/../../Core/AVR8/../AVR8/Endpoint_AVR8.h **** 			static inline void Endpoint_Write_8(const uint8_t Data) ATTR_ALWAYS_INLINE;
 552:../../tmk_core/protocol/lufa/LUFA-git/LUFA/Drivers/USB/Class/Device/../../Core/AVR8/../AVR8/Endpoint_AVR8.h **** 			static inline void Endpoint_Write_8(const uint8_t Data)
 553:../../tmk_core/protocol/lufa/LUFA-git/LUFA/Drivers/USB/Class/Device/../../Core/AVR8/../AVR8/Endpoint_AVR8.h **** 			{
 554:../../tmk_core/protocol/lufa/LUFA-git/LUFA/Drivers/USB/Class/Device/../../Core/AVR8/../AVR8/Endpoint_AVR8.h **** 				UEDATX = Data;
 269               		.loc 2 554 0
 270 0032 C093 F100 		sts 241,r28
 271               	.LBE98:
 272               	.LBE97:
 178:../../tmk_core/protocol/lufa/LUFA-git/LUFA/Drivers/USB/Class/Device/CDCClassDevice.c **** 	{
 179:../../tmk_core/protocol/lufa/LUFA-git/LUFA/Drivers/USB/Class/Device/CDCClassDevice.c **** 		Endpoint_ClearIN();
 180:../../tmk_core/protocol/lufa/LUFA-git/LUFA/Drivers/USB/Class/Device/CDCClassDevice.c **** 
 181:../../tmk_core/protocol/lufa/LUFA-git/LUFA/Drivers/USB/Class/Device/CDCClassDevice.c **** 		uint8_t ErrorCode;
 182:../../tmk_core/protocol/lufa/LUFA-git/LUFA/Drivers/USB/Class/Device/CDCClassDevice.c **** 
 183:../../tmk_core/protocol/lufa/LUFA-git/LUFA/Drivers/USB/Class/Device/CDCClassDevice.c **** 		if ((ErrorCode = Endpoint_WaitUntilReady()) != ENDPOINT_READYWAIT_NoError)
 184:../../tmk_core/protocol/lufa/LUFA-git/LUFA/Drivers/USB/Class/Device/CDCClassDevice.c **** 		  return ErrorCode;
 185:../../tmk_core/protocol/lufa/LUFA-git/LUFA/Drivers/USB/Class/Device/CDCClassDevice.c **** 	}
 186:../../tmk_core/protocol/lufa/LUFA-git/LUFA/Drivers/USB/Class/Device/CDCClassDevice.c **** 
 187:../../tmk_core/protocol/lufa/LUFA-git/LUFA/Drivers/USB/Class/Device/CDCClassDevice.c **** 	Endpoint_Write_8(Data);
 188:../../tmk_core/protocol/lufa/LUFA-git/LUFA/Drivers/USB/Class/Device/CDCClassDevice.c **** 	return ENDPOINT_READYWAIT_NoError;
 273               		.loc 1 188 0
 274 0036 80E0      		ldi r24,0
 275 0038 00C0      		rjmp .L20
 276               	.LVL26:
 277               	.L21:
 278               	.LBB99:
 279               	.LBB100:
 280               	.LBB101:
 456:../../tmk_core/protocol/lufa/LUFA-git/LUFA/Drivers/USB/Class/Device/../../Core/AVR8/../AVR8/Endpoint_AVR8.h **** 				#else
 281               		.loc 2 456 0
 282 003a 8091 E800 		lds r24,232
 283 003e 8E77      		andi r24,lo8(126)
 284 0040 8093 E800 		sts 232,r24
 285               	.LBE101:
 286               	.LBE100:
 183:../../tmk_core/protocol/lufa/LUFA-git/LUFA/Drivers/USB/Class/Device/CDCClassDevice.c **** 		  return ErrorCode;
 287               		.loc 1 183 0
 288 0044 0E94 0000 		call Endpoint_WaitUntilReady
 289               	.LVL27:
 290 0048 8823      		tst r24
 291 004a 01F0      		breq .L22
 292 004c 00C0      		rjmp .L20
 293               	.LVL28:
 294               	.L24:
 295               	.LBE99:
 173:../../tmk_core/protocol/lufa/LUFA-git/LUFA/Drivers/USB/Class/Device/CDCClassDevice.c **** 
 296               		.loc 1 173 0
 297 004e 82E0      		ldi r24,lo8(2)
 298               	.LVL29:
 299               	.L20:
 300               	/* epilogue start */
 189:../../tmk_core/protocol/lufa/LUFA-git/LUFA/Drivers/USB/Class/Device/CDCClassDevice.c **** }
 301               		.loc 1 189 0
 302 0050 CF91      		pop r28
 303 0052 1F91      		pop r17
 304 0054 0F91      		pop r16
 305 0056 0895      		ret
 306               		.cfi_endproc
 307               	.LFE105:
 309               		.section	.text.CDC_Device_putchar,"ax",@progbits
 311               	CDC_Device_putchar:
 312               	.LFB112:
 190:../../tmk_core/protocol/lufa/LUFA-git/LUFA/Drivers/USB/Class/Device/CDCClassDevice.c **** 
 191:../../tmk_core/protocol/lufa/LUFA-git/LUFA/Drivers/USB/Class/Device/CDCClassDevice.c **** uint8_t CDC_Device_Flush(USB_ClassInfo_CDC_Device_t* const CDCInterfaceInfo)
 192:../../tmk_core/protocol/lufa/LUFA-git/LUFA/Drivers/USB/Class/Device/CDCClassDevice.c **** {
 193:../../tmk_core/protocol/lufa/LUFA-git/LUFA/Drivers/USB/Class/Device/CDCClassDevice.c **** 	if ((USB_DeviceState != DEVICE_STATE_Configured) || !(CDCInterfaceInfo->State.LineEncoding.BaudRat
 194:../../tmk_core/protocol/lufa/LUFA-git/LUFA/Drivers/USB/Class/Device/CDCClassDevice.c **** 	  return ENDPOINT_RWSTREAM_DeviceDisconnected;
 195:../../tmk_core/protocol/lufa/LUFA-git/LUFA/Drivers/USB/Class/Device/CDCClassDevice.c **** 
 196:../../tmk_core/protocol/lufa/LUFA-git/LUFA/Drivers/USB/Class/Device/CDCClassDevice.c **** 	uint8_t ErrorCode;
 197:../../tmk_core/protocol/lufa/LUFA-git/LUFA/Drivers/USB/Class/Device/CDCClassDevice.c **** 
 198:../../tmk_core/protocol/lufa/LUFA-git/LUFA/Drivers/USB/Class/Device/CDCClassDevice.c **** 	Endpoint_SelectEndpoint(CDCInterfaceInfo->Config.DataINEndpoint.Address);
 199:../../tmk_core/protocol/lufa/LUFA-git/LUFA/Drivers/USB/Class/Device/CDCClassDevice.c **** 
 200:../../tmk_core/protocol/lufa/LUFA-git/LUFA/Drivers/USB/Class/Device/CDCClassDevice.c **** 	if (!(Endpoint_BytesInEndpoint()))
 201:../../tmk_core/protocol/lufa/LUFA-git/LUFA/Drivers/USB/Class/Device/CDCClassDevice.c **** 	  return ENDPOINT_READYWAIT_NoError;
 202:../../tmk_core/protocol/lufa/LUFA-git/LUFA/Drivers/USB/Class/Device/CDCClassDevice.c **** 
 203:../../tmk_core/protocol/lufa/LUFA-git/LUFA/Drivers/USB/Class/Device/CDCClassDevice.c **** 	bool BankFull = !(Endpoint_IsReadWriteAllowed());
 204:../../tmk_core/protocol/lufa/LUFA-git/LUFA/Drivers/USB/Class/Device/CDCClassDevice.c **** 
 205:../../tmk_core/protocol/lufa/LUFA-git/LUFA/Drivers/USB/Class/Device/CDCClassDevice.c **** 	Endpoint_ClearIN();
 206:../../tmk_core/protocol/lufa/LUFA-git/LUFA/Drivers/USB/Class/Device/CDCClassDevice.c **** 
 207:../../tmk_core/protocol/lufa/LUFA-git/LUFA/Drivers/USB/Class/Device/CDCClassDevice.c **** 	if (BankFull)
 208:../../tmk_core/protocol/lufa/LUFA-git/LUFA/Drivers/USB/Class/Device/CDCClassDevice.c **** 	{
 209:../../tmk_core/protocol/lufa/LUFA-git/LUFA/Drivers/USB/Class/Device/CDCClassDevice.c **** 		if ((ErrorCode = Endpoint_WaitUntilReady()) != ENDPOINT_READYWAIT_NoError)
 210:../../tmk_core/protocol/lufa/LUFA-git/LUFA/Drivers/USB/Class/Device/CDCClassDevice.c **** 		  return ErrorCode;
 211:../../tmk_core/protocol/lufa/LUFA-git/LUFA/Drivers/USB/Class/Device/CDCClassDevice.c **** 
 212:../../tmk_core/protocol/lufa/LUFA-git/LUFA/Drivers/USB/Class/Device/CDCClassDevice.c **** 		Endpoint_ClearIN();
 213:../../tmk_core/protocol/lufa/LUFA-git/LUFA/Drivers/USB/Class/Device/CDCClassDevice.c **** 	}
 214:../../tmk_core/protocol/lufa/LUFA-git/LUFA/Drivers/USB/Class/Device/CDCClassDevice.c **** 
 215:../../tmk_core/protocol/lufa/LUFA-git/LUFA/Drivers/USB/Class/Device/CDCClassDevice.c **** 	return ENDPOINT_READYWAIT_NoError;
 216:../../tmk_core/protocol/lufa/LUFA-git/LUFA/Drivers/USB/Class/Device/CDCClassDevice.c **** }
 217:../../tmk_core/protocol/lufa/LUFA-git/LUFA/Drivers/USB/Class/Device/CDCClassDevice.c **** 
 218:../../tmk_core/protocol/lufa/LUFA-git/LUFA/Drivers/USB/Class/Device/CDCClassDevice.c **** uint16_t CDC_Device_BytesReceived(USB_ClassInfo_CDC_Device_t* const CDCInterfaceInfo)
 219:../../tmk_core/protocol/lufa/LUFA-git/LUFA/Drivers/USB/Class/Device/CDCClassDevice.c **** {
 220:../../tmk_core/protocol/lufa/LUFA-git/LUFA/Drivers/USB/Class/Device/CDCClassDevice.c **** 	if ((USB_DeviceState != DEVICE_STATE_Configured) || !(CDCInterfaceInfo->State.LineEncoding.BaudRat
 221:../../tmk_core/protocol/lufa/LUFA-git/LUFA/Drivers/USB/Class/Device/CDCClassDevice.c **** 	  return 0;
 222:../../tmk_core/protocol/lufa/LUFA-git/LUFA/Drivers/USB/Class/Device/CDCClassDevice.c **** 
 223:../../tmk_core/protocol/lufa/LUFA-git/LUFA/Drivers/USB/Class/Device/CDCClassDevice.c **** 	Endpoint_SelectEndpoint(CDCInterfaceInfo->Config.DataOUTEndpoint.Address);
 224:../../tmk_core/protocol/lufa/LUFA-git/LUFA/Drivers/USB/Class/Device/CDCClassDevice.c **** 
 225:../../tmk_core/protocol/lufa/LUFA-git/LUFA/Drivers/USB/Class/Device/CDCClassDevice.c **** 	if (Endpoint_IsOUTReceived())
 226:../../tmk_core/protocol/lufa/LUFA-git/LUFA/Drivers/USB/Class/Device/CDCClassDevice.c **** 	{
 227:../../tmk_core/protocol/lufa/LUFA-git/LUFA/Drivers/USB/Class/Device/CDCClassDevice.c **** 		if (!(Endpoint_BytesInEndpoint()))
 228:../../tmk_core/protocol/lufa/LUFA-git/LUFA/Drivers/USB/Class/Device/CDCClassDevice.c **** 		{
 229:../../tmk_core/protocol/lufa/LUFA-git/LUFA/Drivers/USB/Class/Device/CDCClassDevice.c **** 			Endpoint_ClearOUT();
 230:../../tmk_core/protocol/lufa/LUFA-git/LUFA/Drivers/USB/Class/Device/CDCClassDevice.c **** 			return 0;
 231:../../tmk_core/protocol/lufa/LUFA-git/LUFA/Drivers/USB/Class/Device/CDCClassDevice.c **** 		}
 232:../../tmk_core/protocol/lufa/LUFA-git/LUFA/Drivers/USB/Class/Device/CDCClassDevice.c **** 		else
 233:../../tmk_core/protocol/lufa/LUFA-git/LUFA/Drivers/USB/Class/Device/CDCClassDevice.c **** 		{
 234:../../tmk_core/protocol/lufa/LUFA-git/LUFA/Drivers/USB/Class/Device/CDCClassDevice.c **** 			return Endpoint_BytesInEndpoint();
 235:../../tmk_core/protocol/lufa/LUFA-git/LUFA/Drivers/USB/Class/Device/CDCClassDevice.c **** 		}
 236:../../tmk_core/protocol/lufa/LUFA-git/LUFA/Drivers/USB/Class/Device/CDCClassDevice.c **** 	}
 237:../../tmk_core/protocol/lufa/LUFA-git/LUFA/Drivers/USB/Class/Device/CDCClassDevice.c **** 	else
 238:../../tmk_core/protocol/lufa/LUFA-git/LUFA/Drivers/USB/Class/Device/CDCClassDevice.c **** 	{
 239:../../tmk_core/protocol/lufa/LUFA-git/LUFA/Drivers/USB/Class/Device/CDCClassDevice.c **** 		return 0;
 240:../../tmk_core/protocol/lufa/LUFA-git/LUFA/Drivers/USB/Class/Device/CDCClassDevice.c **** 	}
 241:../../tmk_core/protocol/lufa/LUFA-git/LUFA/Drivers/USB/Class/Device/CDCClassDevice.c **** }
 242:../../tmk_core/protocol/lufa/LUFA-git/LUFA/Drivers/USB/Class/Device/CDCClassDevice.c **** 
 243:../../tmk_core/protocol/lufa/LUFA-git/LUFA/Drivers/USB/Class/Device/CDCClassDevice.c **** int16_t CDC_Device_ReceiveByte(USB_ClassInfo_CDC_Device_t* const CDCInterfaceInfo)
 244:../../tmk_core/protocol/lufa/LUFA-git/LUFA/Drivers/USB/Class/Device/CDCClassDevice.c **** {
 245:../../tmk_core/protocol/lufa/LUFA-git/LUFA/Drivers/USB/Class/Device/CDCClassDevice.c **** 	if ((USB_DeviceState != DEVICE_STATE_Configured) || !(CDCInterfaceInfo->State.LineEncoding.BaudRat
 246:../../tmk_core/protocol/lufa/LUFA-git/LUFA/Drivers/USB/Class/Device/CDCClassDevice.c **** 	  return -1;
 247:../../tmk_core/protocol/lufa/LUFA-git/LUFA/Drivers/USB/Class/Device/CDCClassDevice.c **** 
 248:../../tmk_core/protocol/lufa/LUFA-git/LUFA/Drivers/USB/Class/Device/CDCClassDevice.c **** 	int16_t ReceivedByte = -1;
 249:../../tmk_core/protocol/lufa/LUFA-git/LUFA/Drivers/USB/Class/Device/CDCClassDevice.c **** 
 250:../../tmk_core/protocol/lufa/LUFA-git/LUFA/Drivers/USB/Class/Device/CDCClassDevice.c **** 	Endpoint_SelectEndpoint(CDCInterfaceInfo->Config.DataOUTEndpoint.Address);
 251:../../tmk_core/protocol/lufa/LUFA-git/LUFA/Drivers/USB/Class/Device/CDCClassDevice.c **** 
 252:../../tmk_core/protocol/lufa/LUFA-git/LUFA/Drivers/USB/Class/Device/CDCClassDevice.c **** 	if (Endpoint_IsOUTReceived())
 253:../../tmk_core/protocol/lufa/LUFA-git/LUFA/Drivers/USB/Class/Device/CDCClassDevice.c **** 	{
 254:../../tmk_core/protocol/lufa/LUFA-git/LUFA/Drivers/USB/Class/Device/CDCClassDevice.c **** 		if (Endpoint_BytesInEndpoint())
 255:../../tmk_core/protocol/lufa/LUFA-git/LUFA/Drivers/USB/Class/Device/CDCClassDevice.c **** 		  ReceivedByte = Endpoint_Read_8();
 256:../../tmk_core/protocol/lufa/LUFA-git/LUFA/Drivers/USB/Class/Device/CDCClassDevice.c **** 
 257:../../tmk_core/protocol/lufa/LUFA-git/LUFA/Drivers/USB/Class/Device/CDCClassDevice.c **** 		if (!(Endpoint_BytesInEndpoint()))
 258:../../tmk_core/protocol/lufa/LUFA-git/LUFA/Drivers/USB/Class/Device/CDCClassDevice.c **** 		  Endpoint_ClearOUT();
 259:../../tmk_core/protocol/lufa/LUFA-git/LUFA/Drivers/USB/Class/Device/CDCClassDevice.c **** 	}
 260:../../tmk_core/protocol/lufa/LUFA-git/LUFA/Drivers/USB/Class/Device/CDCClassDevice.c **** 
 261:../../tmk_core/protocol/lufa/LUFA-git/LUFA/Drivers/USB/Class/Device/CDCClassDevice.c **** 	return ReceivedByte;
 262:../../tmk_core/protocol/lufa/LUFA-git/LUFA/Drivers/USB/Class/Device/CDCClassDevice.c **** }
 263:../../tmk_core/protocol/lufa/LUFA-git/LUFA/Drivers/USB/Class/Device/CDCClassDevice.c **** 
 264:../../tmk_core/protocol/lufa/LUFA-git/LUFA/Drivers/USB/Class/Device/CDCClassDevice.c **** void CDC_Device_SendControlLineStateChange(USB_ClassInfo_CDC_Device_t* const CDCInterfaceInfo)
 265:../../tmk_core/protocol/lufa/LUFA-git/LUFA/Drivers/USB/Class/Device/CDCClassDevice.c **** {
 266:../../tmk_core/protocol/lufa/LUFA-git/LUFA/Drivers/USB/Class/Device/CDCClassDevice.c **** 	if ((USB_DeviceState != DEVICE_STATE_Configured) || !(CDCInterfaceInfo->State.LineEncoding.BaudRat
 267:../../tmk_core/protocol/lufa/LUFA-git/LUFA/Drivers/USB/Class/Device/CDCClassDevice.c **** 	  return;
 268:../../tmk_core/protocol/lufa/LUFA-git/LUFA/Drivers/USB/Class/Device/CDCClassDevice.c **** 
 269:../../tmk_core/protocol/lufa/LUFA-git/LUFA/Drivers/USB/Class/Device/CDCClassDevice.c **** 	Endpoint_SelectEndpoint(CDCInterfaceInfo->Config.NotificationEndpoint.Address);
 270:../../tmk_core/protocol/lufa/LUFA-git/LUFA/Drivers/USB/Class/Device/CDCClassDevice.c **** 
 271:../../tmk_core/protocol/lufa/LUFA-git/LUFA/Drivers/USB/Class/Device/CDCClassDevice.c **** 	USB_Request_Header_t Notification = (USB_Request_Header_t)
 272:../../tmk_core/protocol/lufa/LUFA-git/LUFA/Drivers/USB/Class/Device/CDCClassDevice.c **** 		{
 273:../../tmk_core/protocol/lufa/LUFA-git/LUFA/Drivers/USB/Class/Device/CDCClassDevice.c **** 			.bmRequestType = (REQDIR_DEVICETOHOST | REQTYPE_CLASS | REQREC_INTERFACE),
 274:../../tmk_core/protocol/lufa/LUFA-git/LUFA/Drivers/USB/Class/Device/CDCClassDevice.c **** 			.bRequest      = CDC_NOTIF_SerialState,
 275:../../tmk_core/protocol/lufa/LUFA-git/LUFA/Drivers/USB/Class/Device/CDCClassDevice.c **** 			.wValue        = CPU_TO_LE16(0),
 276:../../tmk_core/protocol/lufa/LUFA-git/LUFA/Drivers/USB/Class/Device/CDCClassDevice.c **** 			.wIndex        = CPU_TO_LE16(0),
 277:../../tmk_core/protocol/lufa/LUFA-git/LUFA/Drivers/USB/Class/Device/CDCClassDevice.c **** 			.wLength       = CPU_TO_LE16(sizeof(CDCInterfaceInfo->State.ControlLineStates.DeviceToHost)),
 278:../../tmk_core/protocol/lufa/LUFA-git/LUFA/Drivers/USB/Class/Device/CDCClassDevice.c **** 		};
 279:../../tmk_core/protocol/lufa/LUFA-git/LUFA/Drivers/USB/Class/Device/CDCClassDevice.c **** 
 280:../../tmk_core/protocol/lufa/LUFA-git/LUFA/Drivers/USB/Class/Device/CDCClassDevice.c **** 	Endpoint_Write_Stream_LE(&Notification, sizeof(USB_Request_Header_t), NULL);
 281:../../tmk_core/protocol/lufa/LUFA-git/LUFA/Drivers/USB/Class/Device/CDCClassDevice.c **** 	Endpoint_Write_Stream_LE(&CDCInterfaceInfo->State.ControlLineStates.DeviceToHost,
 282:../../tmk_core/protocol/lufa/LUFA-git/LUFA/Drivers/USB/Class/Device/CDCClassDevice.c **** 	                         sizeof(CDCInterfaceInfo->State.ControlLineStates.DeviceToHost),
 283:../../tmk_core/protocol/lufa/LUFA-git/LUFA/Drivers/USB/Class/Device/CDCClassDevice.c **** 	                         NULL);
 284:../../tmk_core/protocol/lufa/LUFA-git/LUFA/Drivers/USB/Class/Device/CDCClassDevice.c **** 	Endpoint_ClearIN();
 285:../../tmk_core/protocol/lufa/LUFA-git/LUFA/Drivers/USB/Class/Device/CDCClassDevice.c **** }
 286:../../tmk_core/protocol/lufa/LUFA-git/LUFA/Drivers/USB/Class/Device/CDCClassDevice.c **** 
 287:../../tmk_core/protocol/lufa/LUFA-git/LUFA/Drivers/USB/Class/Device/CDCClassDevice.c **** #if defined(FDEV_SETUP_STREAM)
 288:../../tmk_core/protocol/lufa/LUFA-git/LUFA/Drivers/USB/Class/Device/CDCClassDevice.c **** void CDC_Device_CreateStream(USB_ClassInfo_CDC_Device_t* const CDCInterfaceInfo,
 289:../../tmk_core/protocol/lufa/LUFA-git/LUFA/Drivers/USB/Class/Device/CDCClassDevice.c ****                              FILE* const Stream)
 290:../../tmk_core/protocol/lufa/LUFA-git/LUFA/Drivers/USB/Class/Device/CDCClassDevice.c **** {
 291:../../tmk_core/protocol/lufa/LUFA-git/LUFA/Drivers/USB/Class/Device/CDCClassDevice.c **** 	*Stream = (FILE)FDEV_SETUP_STREAM(CDC_Device_putchar, CDC_Device_getchar, _FDEV_SETUP_RW);
 292:../../tmk_core/protocol/lufa/LUFA-git/LUFA/Drivers/USB/Class/Device/CDCClassDevice.c **** 	fdev_set_udata(Stream, CDCInterfaceInfo);
 293:../../tmk_core/protocol/lufa/LUFA-git/LUFA/Drivers/USB/Class/Device/CDCClassDevice.c **** }
 294:../../tmk_core/protocol/lufa/LUFA-git/LUFA/Drivers/USB/Class/Device/CDCClassDevice.c **** 
 295:../../tmk_core/protocol/lufa/LUFA-git/LUFA/Drivers/USB/Class/Device/CDCClassDevice.c **** void CDC_Device_CreateBlockingStream(USB_ClassInfo_CDC_Device_t* const CDCInterfaceInfo,
 296:../../tmk_core/protocol/lufa/LUFA-git/LUFA/Drivers/USB/Class/Device/CDCClassDevice.c ****                                      FILE* const Stream)
 297:../../tmk_core/protocol/lufa/LUFA-git/LUFA/Drivers/USB/Class/Device/CDCClassDevice.c **** {
 298:../../tmk_core/protocol/lufa/LUFA-git/LUFA/Drivers/USB/Class/Device/CDCClassDevice.c **** 	*Stream = (FILE)FDEV_SETUP_STREAM(CDC_Device_putchar, CDC_Device_getchar_Blocking, _FDEV_SETUP_RW)
 299:../../tmk_core/protocol/lufa/LUFA-git/LUFA/Drivers/USB/Class/Device/CDCClassDevice.c **** 	fdev_set_udata(Stream, CDCInterfaceInfo);
 300:../../tmk_core/protocol/lufa/LUFA-git/LUFA/Drivers/USB/Class/Device/CDCClassDevice.c **** }
 301:../../tmk_core/protocol/lufa/LUFA-git/LUFA/Drivers/USB/Class/Device/CDCClassDevice.c **** 
 302:../../tmk_core/protocol/lufa/LUFA-git/LUFA/Drivers/USB/Class/Device/CDCClassDevice.c **** static int CDC_Device_putchar(char c,
 303:../../tmk_core/protocol/lufa/LUFA-git/LUFA/Drivers/USB/Class/Device/CDCClassDevice.c ****                               FILE* Stream)
 304:../../tmk_core/protocol/lufa/LUFA-git/LUFA/Drivers/USB/Class/Device/CDCClassDevice.c **** {
 313               		.loc 1 304 0
 314               		.cfi_startproc
 315               	.LVL30:
 316               	/* prologue: function */
 317               	/* frame size = 0 */
 318               	/* stack size = 0 */
 319               	.L__stack_usage = 0
 320 0000 FB01      		movw r30,r22
 305:../../tmk_core/protocol/lufa/LUFA-git/LUFA/Drivers/USB/Class/Device/CDCClassDevice.c **** 	return CDC_Device_SendByte((USB_ClassInfo_CDC_Device_t*)fdev_get_udata(Stream), c) ? _FDEV_ERR : 0
 321               		.loc 1 305 0
 322 0002 682F      		mov r22,r24
 323               	.LVL31:
 324 0004 8485      		ldd r24,Z+12
 325 0006 9585      		ldd r25,Z+13
 326               	.LVL32:
 327 0008 0E94 0000 		call CDC_Device_SendByte
 328               	.LVL33:
 329 000c 21E0      		ldi r18,lo8(1)
 330 000e 30E0      		ldi r19,0
 331 0010 8111      		cpse r24,__zero_reg__
 332 0012 00C0      		rjmp .L29
 333 0014 20E0      		ldi r18,0
 334 0016 30E0      		ldi r19,0
 335               	.L29:
 306:../../tmk_core/protocol/lufa/LUFA-git/LUFA/Drivers/USB/Class/Device/CDCClassDevice.c **** }
 336               		.loc 1 306 0
 337 0018 8827      		clr r24
 338 001a 9927      		clr r25
 339 001c 821B      		sub r24,r18
 340 001e 930B      		sbc r25,r19
 341 0020 0895      		ret
 342               		.cfi_endproc
 343               	.LFE112:
 345               		.section	.text.CDC_Device_Flush,"ax",@progbits
 346               	.global	CDC_Device_Flush
 348               	CDC_Device_Flush:
 349               	.LFB106:
 192:../../tmk_core/protocol/lufa/LUFA-git/LUFA/Drivers/USB/Class/Device/CDCClassDevice.c **** 	if ((USB_DeviceState != DEVICE_STATE_Configured) || !(CDCInterfaceInfo->State.LineEncoding.BaudRat
 350               		.loc 1 192 0
 351               		.cfi_startproc
 352               	.LVL34:
 353               	/* prologue: function */
 354               	/* frame size = 0 */
 355               	/* stack size = 0 */
 356               	.L__stack_usage = 0
 193:../../tmk_core/protocol/lufa/LUFA-git/LUFA/Drivers/USB/Class/Device/CDCClassDevice.c **** 	  return ENDPOINT_RWSTREAM_DeviceDisconnected;
 357               		.loc 1 193 0
 358 0000 2091 0000 		lds r18,USB_DeviceState
 359 0004 2430      		cpi r18,lo8(4)
 360 0006 01F4      		brne .L35
 193:../../tmk_core/protocol/lufa/LUFA-git/LUFA/Drivers/USB/Class/Device/CDCClassDevice.c **** 	  return ENDPOINT_RWSTREAM_DeviceDisconnected;
 361               		.loc 1 193 0 is_stmt 0 discriminator 1
 362 0008 FC01      		movw r30,r24
 363 000a 4489      		ldd r20,Z+20
 364 000c 5589      		ldd r21,Z+21
 365 000e 6689      		ldd r22,Z+22
 366 0010 7789      		ldd r23,Z+23
 367 0012 452B      		or r20,r21
 368 0014 462B      		or r20,r22
 369 0016 472B      		or r20,r23
 370 0018 01F0      		breq .L35
 371               	.LBB102:
 372               	.LBB103:
 270:../../tmk_core/protocol/lufa/LUFA-git/LUFA/Drivers/USB/Class/Device/../../Core/AVR8/../AVR8/Endpoint_AVR8.h **** 				#endif
 373               		.loc 2 270 0 is_stmt 1
 374 001a 8181      		ldd r24,Z+1
 375               	.LVL35:
 376 001c 8F70      		andi r24,lo8(15)
 377 001e 8093 E900 		sts 233,r24
 378               	.LBE103:
 379               	.LBE102:
 380               	.LBB104:
 381               	.LBB105:
 227:../../tmk_core/protocol/lufa/LUFA-git/LUFA/Drivers/USB/Class/Device/../../Core/AVR8/../AVR8/Endpoint_AVR8.h **** 				#elif defined(USB_SERIES_2_AVR)
 382               		.loc 2 227 0
 383 0022 2091 F300 		lds r18,243
 384 0026 8091 F200 		lds r24,242
 385 002a 90E0      		ldi r25,0
 386 002c 922B      		or r25,r18
 387               	.LBE105:
 388               	.LBE104:
 200:../../tmk_core/protocol/lufa/LUFA-git/LUFA/Drivers/USB/Class/Device/CDCClassDevice.c **** 	  return ENDPOINT_READYWAIT_NoError;
 389               		.loc 1 200 0
 390 002e 892B      		or r24,r25
 391 0030 01F0      		breq .L37
 392               	.LBB106:
 393               	.LBB107:
 360:../../tmk_core/protocol/lufa/LUFA-git/LUFA/Drivers/USB/Class/Device/../../Core/AVR8/../AVR8/Endpoint_AVR8.h **** 			}
 394               		.loc 2 360 0
 395 0032 9091 E800 		lds r25,232
 396               	.LVL36:
 397               	.LBE107:
 398               	.LBE106:
 399               	.LBB108:
 400               	.LBB109:
 456:../../tmk_core/protocol/lufa/LUFA-git/LUFA/Drivers/USB/Class/Device/../../Core/AVR8/../AVR8/Endpoint_AVR8.h **** 				#else
 401               		.loc 2 456 0
 402 0036 8091 E800 		lds r24,232
 403 003a 8E77      		andi r24,lo8(126)
 404 003c 8093 E800 		sts 232,r24
 405               	.LBE109:
 406               	.LBE108:
 207:../../tmk_core/protocol/lufa/LUFA-git/LUFA/Drivers/USB/Class/Device/CDCClassDevice.c **** 	{
 407               		.loc 1 207 0
 408 0040 95FD      		sbrc r25,5
 409 0042 00C0      		rjmp .L37
 209:../../tmk_core/protocol/lufa/LUFA-git/LUFA/Drivers/USB/Class/Device/CDCClassDevice.c **** 		  return ErrorCode;
 410               		.loc 1 209 0
 411 0044 0E94 0000 		call Endpoint_WaitUntilReady
 412               	.LVL37:
 413 0048 8111      		cpse r24,__zero_reg__
 414 004a 00C0      		rjmp .L31
 415               	.LBB110:
 416               	.LBB111:
 456:../../tmk_core/protocol/lufa/LUFA-git/LUFA/Drivers/USB/Class/Device/../../Core/AVR8/../AVR8/Endpoint_AVR8.h **** 				#else
 417               		.loc 2 456 0
 418 004c 8091 E800 		lds r24,232
 419               	.LVL38:
 420 0050 8E77      		andi r24,lo8(126)
 421 0052 8093 E800 		sts 232,r24
 422               	.L37:
 423               	.LBE111:
 424               	.LBE110:
 215:../../tmk_core/protocol/lufa/LUFA-git/LUFA/Drivers/USB/Class/Device/CDCClassDevice.c **** }
 425               		.loc 1 215 0
 426 0056 80E0      		ldi r24,0
 427 0058 0895      		ret
 428               	.LVL39:
 429               	.L35:
 194:../../tmk_core/protocol/lufa/LUFA-git/LUFA/Drivers/USB/Class/Device/CDCClassDevice.c **** 
 430               		.loc 1 194 0
 431 005a 82E0      		ldi r24,lo8(2)
 432               	.LVL40:
 433               	.L31:
 216:../../tmk_core/protocol/lufa/LUFA-git/LUFA/Drivers/USB/Class/Device/CDCClassDevice.c **** 
 434               		.loc 1 216 0
 435 005c 0895      		ret
 436               		.cfi_endproc
 437               	.LFE106:
 439               		.section	.text.CDC_Device_USBTask,"ax",@progbits
 440               	.global	CDC_Device_USBTask
 442               	CDC_Device_USBTask:
 443               	.LFB102:
 136:../../tmk_core/protocol/lufa/LUFA-git/LUFA/Drivers/USB/Class/Device/CDCClassDevice.c **** 	if ((USB_DeviceState != DEVICE_STATE_Configured) || !(CDCInterfaceInfo->State.LineEncoding.BaudRat
 444               		.loc 1 136 0
 445               		.cfi_startproc
 446               	.LVL41:
 447               	/* prologue: function */
 448               	/* frame size = 0 */
 449               	/* stack size = 0 */
 450               	.L__stack_usage = 0
 137:../../tmk_core/protocol/lufa/LUFA-git/LUFA/Drivers/USB/Class/Device/CDCClassDevice.c **** 	  return;
 451               		.loc 1 137 0
 452 0000 2091 0000 		lds r18,USB_DeviceState
 453 0004 2430      		cpi r18,lo8(4)
 454 0006 01F4      		brne .L38
 137:../../tmk_core/protocol/lufa/LUFA-git/LUFA/Drivers/USB/Class/Device/CDCClassDevice.c **** 	  return;
 455               		.loc 1 137 0 is_stmt 0 discriminator 1
 456 0008 FC01      		movw r30,r24
 457 000a 4489      		ldd r20,Z+20
 458 000c 5589      		ldd r21,Z+21
 459 000e 6689      		ldd r22,Z+22
 460 0010 7789      		ldd r23,Z+23
 461 0012 452B      		or r20,r21
 462 0014 462B      		or r20,r22
 463 0016 472B      		or r20,r23
 464 0018 01F0      		breq .L38
 465               	.LVL42:
 466               	.LBB112:
 467               	.LBB113:
 270:../../tmk_core/protocol/lufa/LUFA-git/LUFA/Drivers/USB/Class/Device/../../Core/AVR8/../AVR8/Endpoint_AVR8.h **** 				#endif
 468               		.loc 2 270 0 is_stmt 1
 469 001a 2181      		ldd r18,Z+1
 470 001c 2F70      		andi r18,lo8(15)
 471 001e 2093 E900 		sts 233,r18
 472               	.LVL43:
 473               	.LBE113:
 474               	.LBE112:
 475               	.LBB114:
 476               	.LBB115:
 407:../../tmk_core/protocol/lufa/LUFA-git/LUFA/Drivers/USB/Class/Device/../../Core/AVR8/../AVR8/Endpoint_AVR8.h **** 			}
 477               		.loc 2 407 0
 478 0022 2091 E800 		lds r18,232
 479               	.LBE115:
 480               	.LBE114:
 143:../../tmk_core/protocol/lufa/LUFA-git/LUFA/Drivers/USB/Class/Device/CDCClassDevice.c **** 	  CDC_Device_Flush(CDCInterfaceInfo);
 481               		.loc 1 143 0
 482 0026 20FD      		sbrc r18,0
 144:../../tmk_core/protocol/lufa/LUFA-git/LUFA/Drivers/USB/Class/Device/CDCClassDevice.c **** 	#endif
 483               		.loc 1 144 0
 484 0028 0C94 0000 		jmp CDC_Device_Flush
 485               	.LVL44:
 486               	.L38:
 487 002c 0895      		ret
 488               		.cfi_endproc
 489               	.LFE102:
 491               		.section	.text.CDC_Device_BytesReceived,"ax",@progbits
 492               	.global	CDC_Device_BytesReceived
 494               	CDC_Device_BytesReceived:
 495               	.LFB107:
 219:../../tmk_core/protocol/lufa/LUFA-git/LUFA/Drivers/USB/Class/Device/CDCClassDevice.c **** 	if ((USB_DeviceState != DEVICE_STATE_Configured) || !(CDCInterfaceInfo->State.LineEncoding.BaudRat
 496               		.loc 1 219 0
 497               		.cfi_startproc
 498               	.LVL45:
 499               	/* prologue: function */
 500               	/* frame size = 0 */
 501               	/* stack size = 0 */
 502               	.L__stack_usage = 0
 220:../../tmk_core/protocol/lufa/LUFA-git/LUFA/Drivers/USB/Class/Device/CDCClassDevice.c **** 	  return 0;
 503               		.loc 1 220 0
 504 0000 2091 0000 		lds r18,USB_DeviceState
 505 0004 2430      		cpi r18,lo8(4)
 506 0006 01F0      		breq .L49
 507               	.LVL46:
 508               	.L51:
 221:../../tmk_core/protocol/lufa/LUFA-git/LUFA/Drivers/USB/Class/Device/CDCClassDevice.c **** 
 509               		.loc 1 221 0
 510 0008 80E0      		ldi r24,0
 511 000a 90E0      		ldi r25,0
 512 000c 0895      		ret
 513               	.LVL47:
 514               	.L49:
 220:../../tmk_core/protocol/lufa/LUFA-git/LUFA/Drivers/USB/Class/Device/CDCClassDevice.c **** 	  return 0;
 515               		.loc 1 220 0 discriminator 1
 516 000e FC01      		movw r30,r24
 517 0010 4489      		ldd r20,Z+20
 518 0012 5589      		ldd r21,Z+21
 519 0014 6689      		ldd r22,Z+22
 520 0016 7789      		ldd r23,Z+23
 521 0018 452B      		or r20,r21
 522 001a 462B      		or r20,r22
 523 001c 472B      		or r20,r23
 524 001e 01F0      		breq .L51
 525               	.LBB116:
 526               	.LBB117:
 270:../../tmk_core/protocol/lufa/LUFA-git/LUFA/Drivers/USB/Class/Device/../../Core/AVR8/../AVR8/Endpoint_AVR8.h **** 				#endif
 527               		.loc 2 270 0
 528 0020 8681      		ldd r24,Z+6
 529               	.LVL48:
 530 0022 8F70      		andi r24,lo8(15)
 531 0024 8093 E900 		sts 233,r24
 532               	.LBE117:
 533               	.LBE116:
 534               	.LBB118:
 535               	.LBB119:
 419:../../tmk_core/protocol/lufa/LUFA-git/LUFA/Drivers/USB/Class/Device/../../Core/AVR8/../AVR8/Endpoint_AVR8.h **** 			}
 536               		.loc 2 419 0
 537 0028 8091 E800 		lds r24,232
 538               	.LBE119:
 539               	.LBE118:
 225:../../tmk_core/protocol/lufa/LUFA-git/LUFA/Drivers/USB/Class/Device/CDCClassDevice.c **** 	{
 540               		.loc 1 225 0
 541 002c 82FF      		sbrs r24,2
 542 002e 00C0      		rjmp .L51
 543               	.LBB120:
 544               	.LBB121:
 227:../../tmk_core/protocol/lufa/LUFA-git/LUFA/Drivers/USB/Class/Device/../../Core/AVR8/../AVR8/Endpoint_AVR8.h **** 				#elif defined(USB_SERIES_2_AVR)
 545               		.loc 2 227 0
 546 0030 2091 F300 		lds r18,243
 547 0034 8091 F200 		lds r24,242
 548 0038 90E0      		ldi r25,0
 549 003a 922B      		or r25,r18
 550               	.LBE121:
 551               	.LBE120:
 227:../../tmk_core/protocol/lufa/LUFA-git/LUFA/Drivers/USB/Class/Device/CDCClassDevice.c **** 		{
 552               		.loc 1 227 0
 553 003c 0097      		sbiw r24,0
 554 003e 01F4      		brne .L52
 555               	.LBB122:
 556               	.LBB123:
 471:../../tmk_core/protocol/lufa/LUFA-git/LUFA/Drivers/USB/Class/Device/../../Core/AVR8/../AVR8/Endpoint_AVR8.h **** 				#else
 557               		.loc 2 471 0
 558 0040 2091 E800 		lds r18,232
 559 0044 2B77      		andi r18,lo8(123)
 560 0046 2093 E800 		sts 232,r18
 561               	.LBE123:
 562               	.LBE122:
 230:../../tmk_core/protocol/lufa/LUFA-git/LUFA/Drivers/USB/Class/Device/CDCClassDevice.c **** 		}
 563               		.loc 1 230 0
 564 004a 0895      		ret
 565               	.L52:
 566               	.LBB124:
 567               	.LBB125:
 227:../../tmk_core/protocol/lufa/LUFA-git/LUFA/Drivers/USB/Class/Device/../../Core/AVR8/../AVR8/Endpoint_AVR8.h **** 				#elif defined(USB_SERIES_2_AVR)
 568               		.loc 2 227 0
 569 004c 2091 F300 		lds r18,243
 570 0050 8091 F200 		lds r24,242
 571 0054 90E0      		ldi r25,0
 572 0056 922B      		or r25,r18
 573               	.LBE125:
 574               	.LBE124:
 241:../../tmk_core/protocol/lufa/LUFA-git/LUFA/Drivers/USB/Class/Device/CDCClassDevice.c **** 
 575               		.loc 1 241 0
 576 0058 0895      		ret
 577               		.cfi_endproc
 578               	.LFE107:
 580               		.section	.text.CDC_Device_ReceiveByte,"ax",@progbits
 581               	.global	CDC_Device_ReceiveByte
 583               	CDC_Device_ReceiveByte:
 584               	.LFB108:
 244:../../tmk_core/protocol/lufa/LUFA-git/LUFA/Drivers/USB/Class/Device/CDCClassDevice.c **** 	if ((USB_DeviceState != DEVICE_STATE_Configured) || !(CDCInterfaceInfo->State.LineEncoding.BaudRat
 585               		.loc 1 244 0
 586               		.cfi_startproc
 587               	.LVL49:
 588               	/* prologue: function */
 589               	/* frame size = 0 */
 590               	/* stack size = 0 */
 591               	.L__stack_usage = 0
 245:../../tmk_core/protocol/lufa/LUFA-git/LUFA/Drivers/USB/Class/Device/CDCClassDevice.c **** 	  return -1;
 592               		.loc 1 245 0
 593 0000 2091 0000 		lds r18,USB_DeviceState
 594 0004 2430      		cpi r18,lo8(4)
 595 0006 01F0      		breq .L60
 596               	.LVL50:
 597               	.L62:
 246:../../tmk_core/protocol/lufa/LUFA-git/LUFA/Drivers/USB/Class/Device/CDCClassDevice.c **** 
 598               		.loc 1 246 0
 599 0008 8FEF      		ldi r24,lo8(-1)
 600 000a 9FEF      		ldi r25,lo8(-1)
 601 000c 0895      		ret
 602               	.LVL51:
 603               	.L60:
 245:../../tmk_core/protocol/lufa/LUFA-git/LUFA/Drivers/USB/Class/Device/CDCClassDevice.c **** 	  return -1;
 604               		.loc 1 245 0 discriminator 1
 605 000e FC01      		movw r30,r24
 606 0010 4489      		ldd r20,Z+20
 607 0012 5589      		ldd r21,Z+21
 608 0014 6689      		ldd r22,Z+22
 609 0016 7789      		ldd r23,Z+23
 610 0018 452B      		or r20,r21
 611 001a 462B      		or r20,r22
 612 001c 472B      		or r20,r23
 613 001e 01F0      		breq .L62
 614               	.LVL52:
 615               	.LBB126:
 616               	.LBB127:
 270:../../tmk_core/protocol/lufa/LUFA-git/LUFA/Drivers/USB/Class/Device/../../Core/AVR8/../AVR8/Endpoint_AVR8.h **** 				#endif
 617               		.loc 2 270 0
 618 0020 8681      		ldd r24,Z+6
 619               	.LVL53:
 620 0022 8F70      		andi r24,lo8(15)
 621 0024 8093 E900 		sts 233,r24
 622               	.LBE127:
 623               	.LBE126:
 624               	.LBB128:
 625               	.LBB129:
 419:../../tmk_core/protocol/lufa/LUFA-git/LUFA/Drivers/USB/Class/Device/../../Core/AVR8/../AVR8/Endpoint_AVR8.h **** 			}
 626               		.loc 2 419 0
 627 0028 8091 E800 		lds r24,232
 628               	.LBE129:
 629               	.LBE128:
 252:../../tmk_core/protocol/lufa/LUFA-git/LUFA/Drivers/USB/Class/Device/CDCClassDevice.c **** 	{
 630               		.loc 1 252 0
 631 002c 82FF      		sbrs r24,2
 632 002e 00C0      		rjmp .L62
 633               	.LBB130:
 634               	.LBB131:
 227:../../tmk_core/protocol/lufa/LUFA-git/LUFA/Drivers/USB/Class/Device/../../Core/AVR8/../AVR8/Endpoint_AVR8.h **** 				#elif defined(USB_SERIES_2_AVR)
 635               		.loc 2 227 0
 636 0030 2091 F300 		lds r18,243
 637 0034 8091 F200 		lds r24,242
 638 0038 90E0      		ldi r25,0
 639 003a 922B      		or r25,r18
 640               	.LBE131:
 641               	.LBE130:
 254:../../tmk_core/protocol/lufa/LUFA-git/LUFA/Drivers/USB/Class/Device/CDCClassDevice.c **** 		  ReceivedByte = Endpoint_Read_8();
 642               		.loc 1 254 0
 643 003c 892B      		or r24,r25
 644 003e 01F0      		breq .L64
 645               	.LBB132:
 646               	.LBB133:
 542:../../tmk_core/protocol/lufa/LUFA-git/LUFA/Drivers/USB/Class/Device/../../Core/AVR8/../AVR8/Endpoint_AVR8.h **** 			}
 647               		.loc 2 542 0
 648 0040 2091 F100 		lds r18,241
 649               	.LBE133:
 650               	.LBE132:
 255:../../tmk_core/protocol/lufa/LUFA-git/LUFA/Drivers/USB/Class/Device/CDCClassDevice.c **** 
 651               		.loc 1 255 0
 652 0044 30E0      		ldi r19,0
 653               	.LVL54:
 654 0046 00C0      		rjmp .L63
 655               	.LVL55:
 656               	.L64:
 248:../../tmk_core/protocol/lufa/LUFA-git/LUFA/Drivers/USB/Class/Device/CDCClassDevice.c **** 
 657               		.loc 1 248 0
 658 0048 2FEF      		ldi r18,lo8(-1)
 659 004a 3FEF      		ldi r19,lo8(-1)
 660               	.LVL56:
 661               	.L63:
 662               	.LBB134:
 663               	.LBB135:
 227:../../tmk_core/protocol/lufa/LUFA-git/LUFA/Drivers/USB/Class/Device/../../Core/AVR8/../AVR8/Endpoint_AVR8.h **** 				#elif defined(USB_SERIES_2_AVR)
 664               		.loc 2 227 0
 665 004c 4091 F300 		lds r20,243
 666 0050 8091 F200 		lds r24,242
 667 0054 90E0      		ldi r25,0
 668 0056 942B      		or r25,r20
 669               	.LBE135:
 670               	.LBE134:
 257:../../tmk_core/protocol/lufa/LUFA-git/LUFA/Drivers/USB/Class/Device/CDCClassDevice.c **** 		  Endpoint_ClearOUT();
 671               		.loc 1 257 0
 672 0058 892B      		or r24,r25
 673 005a 01F4      		brne .L65
 674               	.LBB136:
 675               	.LBB137:
 471:../../tmk_core/protocol/lufa/LUFA-git/LUFA/Drivers/USB/Class/Device/../../Core/AVR8/../AVR8/Endpoint_AVR8.h **** 				#else
 676               		.loc 2 471 0
 677 005c 8091 E800 		lds r24,232
 678 0060 8B77      		andi r24,lo8(123)
 679 0062 8093 E800 		sts 232,r24
 680               	.L65:
 681               	.LBE137:
 682               	.LBE136:
 683 0066 C901      		movw r24,r18
 262:../../tmk_core/protocol/lufa/LUFA-git/LUFA/Drivers/USB/Class/Device/CDCClassDevice.c **** 
 684               		.loc 1 262 0
 685 0068 0895      		ret
 686               		.cfi_endproc
 687               	.LFE108:
 689               		.section	.text.CDC_Device_getchar,"ax",@progbits
 691               	CDC_Device_getchar:
 692               	.LFB113:
 307:../../tmk_core/protocol/lufa/LUFA-git/LUFA/Drivers/USB/Class/Device/CDCClassDevice.c **** 
 308:../../tmk_core/protocol/lufa/LUFA-git/LUFA/Drivers/USB/Class/Device/CDCClassDevice.c **** static int CDC_Device_getchar(FILE* Stream)
 309:../../tmk_core/protocol/lufa/LUFA-git/LUFA/Drivers/USB/Class/Device/CDCClassDevice.c **** {
 693               		.loc 1 309 0
 694               		.cfi_startproc
 695               	.LVL57:
 696               	/* prologue: function */
 697               	/* frame size = 0 */
 698               	/* stack size = 0 */
 699               	.L__stack_usage = 0
 310:../../tmk_core/protocol/lufa/LUFA-git/LUFA/Drivers/USB/Class/Device/CDCClassDevice.c **** 	int16_t ReceivedByte = CDC_Device_ReceiveByte((USB_ClassInfo_CDC_Device_t*)fdev_get_udata(Stream))
 700               		.loc 1 310 0
 701 0000 FC01      		movw r30,r24
 702 0002 8485      		ldd r24,Z+12
 703 0004 9585      		ldd r25,Z+13
 704               	.LVL58:
 705 0006 0E94 0000 		call CDC_Device_ReceiveByte
 706               	.LVL59:
 311:../../tmk_core/protocol/lufa/LUFA-git/LUFA/Drivers/USB/Class/Device/CDCClassDevice.c **** 
 312:../../tmk_core/protocol/lufa/LUFA-git/LUFA/Drivers/USB/Class/Device/CDCClassDevice.c **** 	if (ReceivedByte < 0)
 707               		.loc 1 312 0
 708 000a 97FF      		sbrs r25,7
 709 000c 00C0      		rjmp .L73
 313:../../tmk_core/protocol/lufa/LUFA-git/LUFA/Drivers/USB/Class/Device/CDCClassDevice.c **** 	  return _FDEV_EOF;
 710               		.loc 1 313 0
 711 000e 8EEF      		ldi r24,lo8(-2)
 712               	.LVL60:
 713 0010 9FEF      		ldi r25,lo8(-1)
 714               	.L73:
 314:../../tmk_core/protocol/lufa/LUFA-git/LUFA/Drivers/USB/Class/Device/CDCClassDevice.c **** 
 315:../../tmk_core/protocol/lufa/LUFA-git/LUFA/Drivers/USB/Class/Device/CDCClassDevice.c **** 	return ReceivedByte;
 316:../../tmk_core/protocol/lufa/LUFA-git/LUFA/Drivers/USB/Class/Device/CDCClassDevice.c **** }
 715               		.loc 1 316 0
 716 0012 0895      		ret
 717               		.cfi_endproc
 718               	.LFE113:
 720               		.section	.text.CDC_Device_getchar_Blocking,"ax",@progbits
 722               	CDC_Device_getchar_Blocking:
 723               	.LFB114:
 317:../../tmk_core/protocol/lufa/LUFA-git/LUFA/Drivers/USB/Class/Device/CDCClassDevice.c **** 
 318:../../tmk_core/protocol/lufa/LUFA-git/LUFA/Drivers/USB/Class/Device/CDCClassDevice.c **** static int CDC_Device_getchar_Blocking(FILE* Stream)
 319:../../tmk_core/protocol/lufa/LUFA-git/LUFA/Drivers/USB/Class/Device/CDCClassDevice.c **** {
 724               		.loc 1 319 0
 725               		.cfi_startproc
 726               	.LVL61:
 727 0000 CF93      		push r28
 728               	.LCFI5:
 729               		.cfi_def_cfa_offset 3
 730               		.cfi_offset 28, -2
 731 0002 DF93      		push r29
 732               	.LCFI6:
 733               		.cfi_def_cfa_offset 4
 734               		.cfi_offset 29, -3
 735               	/* prologue: function */
 736               	/* frame size = 0 */
 737               	/* stack size = 2 */
 738               	.L__stack_usage = 2
 739 0004 EC01      		movw r28,r24
 740               	.LVL62:
 741               	.L76:
 320:../../tmk_core/protocol/lufa/LUFA-git/LUFA/Drivers/USB/Class/Device/CDCClassDevice.c **** 	int16_t ReceivedByte;
 321:../../tmk_core/protocol/lufa/LUFA-git/LUFA/Drivers/USB/Class/Device/CDCClassDevice.c **** 
 322:../../tmk_core/protocol/lufa/LUFA-git/LUFA/Drivers/USB/Class/Device/CDCClassDevice.c **** 	while ((ReceivedByte = CDC_Device_ReceiveByte((USB_ClassInfo_CDC_Device_t*)fdev_get_udata(Stream))
 742               		.loc 1 322 0
 743 0006 8C85      		ldd r24,Y+12
 744 0008 9D85      		ldd r25,Y+13
 745 000a 0E94 0000 		call CDC_Device_ReceiveByte
 746               	.LVL63:
 747 000e 97FF      		sbrs r25,7
 748 0010 00C0      		rjmp .L77
 323:../../tmk_core/protocol/lufa/LUFA-git/LUFA/Drivers/USB/Class/Device/CDCClassDevice.c **** 	{
 324:../../tmk_core/protocol/lufa/LUFA-git/LUFA/Drivers/USB/Class/Device/CDCClassDevice.c **** 		if (USB_DeviceState == DEVICE_STATE_Unattached)
 749               		.loc 1 324 0
 750 0012 8091 0000 		lds r24,USB_DeviceState
 751               	.LVL64:
 752 0016 8823      		tst r24
 753 0018 01F0      		breq .L79
 325:../../tmk_core/protocol/lufa/LUFA-git/LUFA/Drivers/USB/Class/Device/CDCClassDevice.c **** 		  return _FDEV_EOF;
 326:../../tmk_core/protocol/lufa/LUFA-git/LUFA/Drivers/USB/Class/Device/CDCClassDevice.c **** 
 327:../../tmk_core/protocol/lufa/LUFA-git/LUFA/Drivers/USB/Class/Device/CDCClassDevice.c **** 		CDC_Device_USBTask((USB_ClassInfo_CDC_Device_t*)fdev_get_udata(Stream));
 754               		.loc 1 327 0
 755 001a 8C85      		ldd r24,Y+12
 756 001c 9D85      		ldd r25,Y+13
 757 001e 0E94 0000 		call CDC_Device_USBTask
 758               	.LVL65:
 328:../../tmk_core/protocol/lufa/LUFA-git/LUFA/Drivers/USB/Class/Device/CDCClassDevice.c **** 		USB_USBTask();
 759               		.loc 1 328 0
 760 0022 0E94 0000 		call USB_USBTask
 761               	.LVL66:
 762 0026 00C0      		rjmp .L76
 763               	.L79:
 325:../../tmk_core/protocol/lufa/LUFA-git/LUFA/Drivers/USB/Class/Device/CDCClassDevice.c **** 		  return _FDEV_EOF;
 764               		.loc 1 325 0
 765 0028 8EEF      		ldi r24,lo8(-2)
 766 002a 9FEF      		ldi r25,lo8(-1)
 767               	.L77:
 768               	/* epilogue start */
 329:../../tmk_core/protocol/lufa/LUFA-git/LUFA/Drivers/USB/Class/Device/CDCClassDevice.c **** 	}
 330:../../tmk_core/protocol/lufa/LUFA-git/LUFA/Drivers/USB/Class/Device/CDCClassDevice.c **** 
 331:../../tmk_core/protocol/lufa/LUFA-git/LUFA/Drivers/USB/Class/Device/CDCClassDevice.c **** 	return ReceivedByte;
 332:../../tmk_core/protocol/lufa/LUFA-git/LUFA/Drivers/USB/Class/Device/CDCClassDevice.c **** }
 769               		.loc 1 332 0
 770 002c DF91      		pop r29
 771 002e CF91      		pop r28
 772               	.LVL67:
 773 0030 0895      		ret
 774               		.cfi_endproc
 775               	.LFE114:
 777               		.section	.rodata
 778               	.LC0:
 779 0000 A1        		.byte	-95
 780 0001 20        		.byte	32
 781 0002 0000      		.word	0
 782 0004 0000      		.word	0
 783 0006 0200      		.word	2
 784               		.section	.text.CDC_Device_SendControlLineStateChange,"ax",@progbits
 785               	.global	CDC_Device_SendControlLineStateChange
 787               	CDC_Device_SendControlLineStateChange:
 788               	.LFB109:
 265:../../tmk_core/protocol/lufa/LUFA-git/LUFA/Drivers/USB/Class/Device/CDCClassDevice.c **** 	if ((USB_DeviceState != DEVICE_STATE_Configured) || !(CDCInterfaceInfo->State.LineEncoding.BaudRat
 789               		.loc 1 265 0
 790               		.cfi_startproc
 791               	.LVL68:
 792 0000 0F93      		push r16
 793               	.LCFI7:
 794               		.cfi_def_cfa_offset 3
 795               		.cfi_offset 16, -2
 796 0002 1F93      		push r17
 797               	.LCFI8:
 798               		.cfi_def_cfa_offset 4
 799               		.cfi_offset 17, -3
 800 0004 CF93      		push r28
 801               	.LCFI9:
 802               		.cfi_def_cfa_offset 5
 803               		.cfi_offset 28, -4
 804 0006 DF93      		push r29
 805               	.LCFI10:
 806               		.cfi_def_cfa_offset 6
 807               		.cfi_offset 29, -5
 808 0008 CDB7      		in r28,__SP_L__
 809 000a DEB7      		in r29,__SP_H__
 810               	.LCFI11:
 811               		.cfi_def_cfa_register 28
 812 000c 2897      		sbiw r28,8
 813               	.LCFI12:
 814               		.cfi_def_cfa_offset 14
 815 000e 0FB6      		in __tmp_reg__,__SREG__
 816 0010 F894      		cli
 817 0012 DEBF      		out __SP_H__,r29
 818 0014 0FBE      		out __SREG__,__tmp_reg__
 819 0016 CDBF      		out __SP_L__,r28
 820               	/* prologue: function */
 821               	/* frame size = 8 */
 822               	/* stack size = 12 */
 823               	.L__stack_usage = 12
 266:../../tmk_core/protocol/lufa/LUFA-git/LUFA/Drivers/USB/Class/Device/CDCClassDevice.c **** 	  return;
 824               		.loc 1 266 0
 825 0018 2091 0000 		lds r18,USB_DeviceState
 826 001c 2430      		cpi r18,lo8(4)
 827 001e 01F4      		brne .L80
 266:../../tmk_core/protocol/lufa/LUFA-git/LUFA/Drivers/USB/Class/Device/CDCClassDevice.c **** 	  return;
 828               		.loc 1 266 0 is_stmt 0 discriminator 1
 829 0020 FC01      		movw r30,r24
 830 0022 4489      		ldd r20,Z+20
 831 0024 5589      		ldd r21,Z+21
 832 0026 6689      		ldd r22,Z+22
 833 0028 7789      		ldd r23,Z+23
 834 002a 452B      		or r20,r21
 835 002c 462B      		or r20,r22
 836 002e 472B      		or r20,r23
 837 0030 01F0      		breq .L80
 838 0032 8C01      		movw r16,r24
 839               	.LVL69:
 840               	.LBB138:
 841               	.LBB139:
 270:../../tmk_core/protocol/lufa/LUFA-git/LUFA/Drivers/USB/Class/Device/../../Core/AVR8/../AVR8/Endpoint_AVR8.h **** 				#endif
 842               		.loc 2 270 0 is_stmt 1
 843 0034 8385      		ldd r24,Z+11
 844               	.LVL70:
 845 0036 8F70      		andi r24,lo8(15)
 846               	.LVL71:
 847 0038 8093 E900 		sts 233,r24
 848               	.LVL72:
 849               	.LBE139:
 850               	.LBE138:
 271:../../tmk_core/protocol/lufa/LUFA-git/LUFA/Drivers/USB/Class/Device/CDCClassDevice.c **** 		{
 851               		.loc 1 271 0
 852 003c 88E0      		ldi r24,lo8(8)
 853 003e E0E0      		ldi r30,lo8(.LC0)
 854 0040 F0E0      		ldi r31,hi8(.LC0)
 855 0042 DE01      		movw r26,r28
 856 0044 1196      		adiw r26,1
 857               		0:
 858 0046 0190      		ld r0,Z+
 859 0048 0D92      		st X+,r0
 860 004a 8A95      		dec r24
 861 004c 01F4      		brne 0b
 280:../../tmk_core/protocol/lufa/LUFA-git/LUFA/Drivers/USB/Class/Device/CDCClassDevice.c **** 	Endpoint_Write_Stream_LE(&CDCInterfaceInfo->State.ControlLineStates.DeviceToHost,
 862               		.loc 1 280 0
 863 004e 40E0      		ldi r20,0
 864 0050 50E0      		ldi r21,0
 865 0052 68E0      		ldi r22,lo8(8)
 866 0054 70E0      		ldi r23,0
 867 0056 CE01      		movw r24,r28
 868 0058 0196      		adiw r24,1
 869 005a 0E94 0000 		call Endpoint_Write_Stream_LE
 870               	.LVL73:
 281:../../tmk_core/protocol/lufa/LUFA-git/LUFA/Drivers/USB/Class/Device/CDCClassDevice.c **** 	                         sizeof(CDCInterfaceInfo->State.ControlLineStates.DeviceToHost),
 871               		.loc 1 281 0
 872 005e 40E0      		ldi r20,0
 873 0060 50E0      		ldi r21,0
 874 0062 62E0      		ldi r22,lo8(2)
 875 0064 70E0      		ldi r23,0
 876 0066 C801      		movw r24,r16
 877 0068 4296      		adiw r24,18
 878 006a 0E94 0000 		call Endpoint_Write_Stream_LE
 879               	.LVL74:
 880               	.LBB140:
 881               	.LBB141:
 456:../../tmk_core/protocol/lufa/LUFA-git/LUFA/Drivers/USB/Class/Device/../../Core/AVR8/../AVR8/Endpoint_AVR8.h **** 				#else
 882               		.loc 2 456 0
 883 006e 8091 E800 		lds r24,232
 884 0072 8E77      		andi r24,lo8(126)
 885 0074 8093 E800 		sts 232,r24
 886               	.LVL75:
 887               	.L80:
 888               	/* epilogue start */
 889               	.LBE141:
 890               	.LBE140:
 285:../../tmk_core/protocol/lufa/LUFA-git/LUFA/Drivers/USB/Class/Device/CDCClassDevice.c **** 
 891               		.loc 1 285 0
 892 0078 2896      		adiw r28,8
 893 007a 0FB6      		in __tmp_reg__,__SREG__
 894 007c F894      		cli
 895 007e DEBF      		out __SP_H__,r29
 896 0080 0FBE      		out __SREG__,__tmp_reg__
 897 0082 CDBF      		out __SP_L__,r28
 898 0084 DF91      		pop r29
 899 0086 CF91      		pop r28
 900 0088 1F91      		pop r17
 901 008a 0F91      		pop r16
 902 008c 0895      		ret
 903               		.cfi_endproc
 904               	.LFE109:
 906               		.section	.text.CDC_Device_CreateStream,"ax",@progbits
 907               	.global	CDC_Device_CreateStream
 909               	CDC_Device_CreateStream:
 910               	.LFB110:
 290:../../tmk_core/protocol/lufa/LUFA-git/LUFA/Drivers/USB/Class/Device/CDCClassDevice.c **** 	*Stream = (FILE)FDEV_SETUP_STREAM(CDC_Device_putchar, CDC_Device_getchar, _FDEV_SETUP_RW);
 911               		.loc 1 290 0
 912               		.cfi_startproc
 913               	.LVL76:
 914               	/* prologue: function */
 915               	/* frame size = 0 */
 916               	/* stack size = 0 */
 917               	.L__stack_usage = 0
 918 0000 FB01      		movw r30,r22
 291:../../tmk_core/protocol/lufa/LUFA-git/LUFA/Drivers/USB/Class/Device/CDCClassDevice.c **** 	fdev_set_udata(Stream, CDCInterfaceInfo);
 919               		.loc 1 291 0
 920 0002 2EE0      		ldi r18,lo8(14)
 921 0004 DB01      		movw r26,r22
 922               		0:
 923 0006 1D92      		st X+,__zero_reg__
 924 0008 2A95      		dec r18
 925 000a 01F4      		brne 0b
 926 000c 23E0      		ldi r18,lo8(3)
 927 000e 2383      		std Z+3,r18
 928 0010 20E0      		ldi r18,lo8(gs(CDC_Device_putchar))
 929 0012 30E0      		ldi r19,hi8(gs(CDC_Device_putchar))
 930 0014 3187      		std Z+9,r19
 931 0016 2087      		std Z+8,r18
 932 0018 20E0      		ldi r18,lo8(gs(CDC_Device_getchar))
 933 001a 30E0      		ldi r19,hi8(gs(CDC_Device_getchar))
 934 001c 3387      		std Z+11,r19
 935 001e 2287      		std Z+10,r18
 292:../../tmk_core/protocol/lufa/LUFA-git/LUFA/Drivers/USB/Class/Device/CDCClassDevice.c **** }
 936               		.loc 1 292 0
 937 0020 9587      		std Z+13,r25
 938 0022 8487      		std Z+12,r24
 939 0024 0895      		ret
 940               		.cfi_endproc
 941               	.LFE110:
 943               		.section	.text.CDC_Device_CreateBlockingStream,"ax",@progbits
 944               	.global	CDC_Device_CreateBlockingStream
 946               	CDC_Device_CreateBlockingStream:
 947               	.LFB111:
 297:../../tmk_core/protocol/lufa/LUFA-git/LUFA/Drivers/USB/Class/Device/CDCClassDevice.c **** 	*Stream = (FILE)FDEV_SETUP_STREAM(CDC_Device_putchar, CDC_Device_getchar_Blocking, _FDEV_SETUP_RW)
 948               		.loc 1 297 0
 949               		.cfi_startproc
 950               	.LVL77:
 951               	/* prologue: function */
 952               	/* frame size = 0 */
 953               	/* stack size = 0 */
 954               	.L__stack_usage = 0
 955 0000 FB01      		movw r30,r22
 298:../../tmk_core/protocol/lufa/LUFA-git/LUFA/Drivers/USB/Class/Device/CDCClassDevice.c **** 	fdev_set_udata(Stream, CDCInterfaceInfo);
 956               		.loc 1 298 0
 957 0002 2EE0      		ldi r18,lo8(14)
 958 0004 DB01      		movw r26,r22
 959               		0:
 960 0006 1D92      		st X+,__zero_reg__
 961 0008 2A95      		dec r18
 962 000a 01F4      		brne 0b
 963 000c 23E0      		ldi r18,lo8(3)
 964 000e 2383      		std Z+3,r18
 965 0010 20E0      		ldi r18,lo8(gs(CDC_Device_putchar))
 966 0012 30E0      		ldi r19,hi8(gs(CDC_Device_putchar))
 967 0014 3187      		std Z+9,r19
 968 0016 2087      		std Z+8,r18
 969 0018 20E0      		ldi r18,lo8(gs(CDC_Device_getchar_Blocking))
 970 001a 30E0      		ldi r19,hi8(gs(CDC_Device_getchar_Blocking))
 971 001c 3387      		std Z+11,r19
 972 001e 2287      		std Z+10,r18
 299:../../tmk_core/protocol/lufa/LUFA-git/LUFA/Drivers/USB/Class/Device/CDCClassDevice.c **** }
 973               		.loc 1 299 0
 974 0020 9587      		std Z+13,r25
 975 0022 8487      		std Z+12,r24
 976 0024 0895      		ret
 977               		.cfi_endproc
 978               	.LFE111:
 980               		.section	.text.CDC_Device_Event_Stub,"ax",@progbits
 981               	.global	CDC_Device_Event_Stub
 983               	CDC_Device_Event_Stub:
 984               	.LFB115:
 333:../../tmk_core/protocol/lufa/LUFA-git/LUFA/Drivers/USB/Class/Device/CDCClassDevice.c **** #endif
 334:../../tmk_core/protocol/lufa/LUFA-git/LUFA/Drivers/USB/Class/Device/CDCClassDevice.c **** 
 335:../../tmk_core/protocol/lufa/LUFA-git/LUFA/Drivers/USB/Class/Device/CDCClassDevice.c **** void CDC_Device_Event_Stub(void)
 336:../../tmk_core/protocol/lufa/LUFA-git/LUFA/Drivers/USB/Class/Device/CDCClassDevice.c **** {
 985               		.loc 1 336 0
 986               		.cfi_startproc
 987               	/* prologue: function */
 988               	/* frame size = 0 */
 989               	/* stack size = 0 */
 990               	.L__stack_usage = 0
 991 0000 0895      		ret
 992               		.cfi_endproc
 993               	.LFE115:
 995               		.weak	EVENT_CDC_Device_LineEncodingChanged
 996               		.set	EVENT_CDC_Device_LineEncodingChanged,CDC_Device_Event_Stub
 997               		.weak	EVENT_CDC_Device_ControLineStateChanged
 998               		.set	EVENT_CDC_Device_ControLineStateChanged,CDC_Device_Event_Stub
 999               		.weak	EVENT_CDC_Device_BreakSent
 1000               		.set	EVENT_CDC_Device_BreakSent,CDC_Device_Event_Stub
 1001               		.section	.text.CDC_Device_ProcessControlRequest,"ax",@progbits
 1002               	.global	CDC_Device_ProcessControlRequest
 1004               	CDC_Device_ProcessControlRequest:
 1005               	.LFB100:
  41:../../tmk_core/protocol/lufa/LUFA-git/LUFA/Drivers/USB/Class/Device/CDCClassDevice.c **** 	if (!(Endpoint_IsSETUPReceived()))
 1006               		.loc 1 41 0
 1007               		.cfi_startproc
 1008               	.LVL78:
  41:../../tmk_core/protocol/lufa/LUFA-git/LUFA/Drivers/USB/Class/Device/CDCClassDevice.c **** 	if (!(Endpoint_IsSETUPReceived()))
 1009               		.loc 1 41 0
 1010 0000 CF93      		push r28
 1011               	.LCFI13:
 1012               		.cfi_def_cfa_offset 3
 1013               		.cfi_offset 28, -2
 1014 0002 DF93      		push r29
 1015               	.LCFI14:
 1016               		.cfi_def_cfa_offset 4
 1017               		.cfi_offset 29, -3
 1018               	/* prologue: function */
 1019               	/* frame size = 0 */
 1020               	/* stack size = 2 */
 1021               	.L__stack_usage = 2
 1022 0004 EC01      		movw r28,r24
 1023               	.LBB142:
 1024               	.LBB143:
 431:../../tmk_core/protocol/lufa/LUFA-git/LUFA/Drivers/USB/Class/Device/../../Core/AVR8/../AVR8/Endpoint_AVR8.h **** 			}
 1025               		.loc 2 431 0
 1026 0006 8091 E800 		lds r24,232
 1027               	.LVL79:
 1028               	.LBE143:
 1029               	.LBE142:
  42:../../tmk_core/protocol/lufa/LUFA-git/LUFA/Drivers/USB/Class/Device/CDCClassDevice.c **** 	  return;
 1030               		.loc 1 42 0
 1031 000a 83FF      		sbrs r24,3
 1032 000c 00C0      		rjmp .L89
  45:../../tmk_core/protocol/lufa/LUFA-git/LUFA/Drivers/USB/Class/Device/CDCClassDevice.c **** 	  return;
 1033               		.loc 1 45 0
 1034 000e 8881      		ld r24,Y
 1035 0010 90E0      		ldi r25,0
 1036 0012 2091 0000 		lds r18,USB_ControlRequest+4
 1037 0016 3091 0000 		lds r19,USB_ControlRequest+4+1
 1038 001a 2817      		cp r18,r24
 1039 001c 3907      		cpc r19,r25
 1040 001e 01F0      		breq .+2
 1041 0020 00C0      		rjmp .L89
  48:../../tmk_core/protocol/lufa/LUFA-git/LUFA/Drivers/USB/Class/Device/CDCClassDevice.c **** 	{
 1042               		.loc 1 48 0
 1043 0022 8091 0000 		lds r24,USB_ControlRequest+1
 1044 0026 8132      		cpi r24,lo8(33)
 1045 0028 01F0      		breq .L93
 1046 002a 00F4      		brsh .L94
 1047 002c 8032      		cpi r24,lo8(32)
 1048 002e 01F4      		brne .+2
 1049 0030 00C0      		rjmp .L95
 1050 0032 00C0      		rjmp .L89
 1051               	.L94:
 1052 0034 8232      		cpi r24,lo8(34)
 1053 0036 01F4      		brne .+2
 1054 0038 00C0      		rjmp .L96
 1055 003a 8332      		cpi r24,lo8(35)
 1056 003c 01F4      		brne .+2
 1057 003e 00C0      		rjmp .L97
 1058 0040 00C0      		rjmp .L89
 1059               	.L93:
  51:../../tmk_core/protocol/lufa/LUFA-git/LUFA/Drivers/USB/Class/Device/CDCClassDevice.c **** 			{
 1060               		.loc 1 51 0
 1061 0042 8091 0000 		lds r24,USB_ControlRequest
 1062 0046 813A      		cpi r24,lo8(-95)
 1063 0048 01F0      		breq .+2
 1064 004a 00C0      		rjmp .L89
 1065               	.LBB144:
 1066               	.LBB145:
 444:../../tmk_core/protocol/lufa/LUFA-git/LUFA/Drivers/USB/Class/Device/../../Core/AVR8/../AVR8/Endpoint_AVR8.h **** 			}
 1067               		.loc 2 444 0
 1068 004c 8091 E800 		lds r24,232
 1069 0050 877F      		andi r24,lo8(-9)
 1070 0052 8093 E800 		sts 232,r24
 1071               	.L98:
 1072               	.LBE145:
 1073               	.LBE144:
 1074               	.LBB146:
 1075               	.LBB147:
 407:../../tmk_core/protocol/lufa/LUFA-git/LUFA/Drivers/USB/Class/Device/../../Core/AVR8/../AVR8/Endpoint_AVR8.h **** 			}
 1076               		.loc 2 407 0 discriminator 1
 1077 0056 8091 E800 		lds r24,232
 1078               	.LBE147:
 1079               	.LBE146:
  55:../../tmk_core/protocol/lufa/LUFA-git/LUFA/Drivers/USB/Class/Device/CDCClassDevice.c **** 
 1080               		.loc 1 55 0 discriminator 1
 1081 005a 80FF      		sbrs r24,0
 1082 005c 00C0      		rjmp .L98
  57:../../tmk_core/protocol/lufa/LUFA-git/LUFA/Drivers/USB/Class/Device/CDCClassDevice.c **** 				Endpoint_Write_8(CDCInterfaceInfo->State.LineEncoding.CharFormat);
 1083               		.loc 1 57 0
 1084 005e 8C89      		ldd r24,Y+20
 1085 0060 9D89      		ldd r25,Y+21
 1086 0062 AE89      		ldd r26,Y+22
 1087 0064 BF89      		ldd r27,Y+23
 1088               	.LVL80:
 1089               	.LBB148:
 1090               	.LBB149:
 555:../../tmk_core/protocol/lufa/LUFA-git/LUFA/Drivers/USB/Class/Device/../../Core/AVR8/../AVR8/Endpoint_AVR8.h **** 			}
 556:../../tmk_core/protocol/lufa/LUFA-git/LUFA/Drivers/USB/Class/Device/../../Core/AVR8/../AVR8/Endpoint_AVR8.h **** 
 557:../../tmk_core/protocol/lufa/LUFA-git/LUFA/Drivers/USB/Class/Device/../../Core/AVR8/../AVR8/Endpoint_AVR8.h **** 			/** Discards one byte from the currently selected endpoint's bank, for OUT direction endpoints.
 558:../../tmk_core/protocol/lufa/LUFA-git/LUFA/Drivers/USB/Class/Device/../../Core/AVR8/../AVR8/Endpoint_AVR8.h **** 			 *
 559:../../tmk_core/protocol/lufa/LUFA-git/LUFA/Drivers/USB/Class/Device/../../Core/AVR8/../AVR8/Endpoint_AVR8.h **** 			 *  \ingroup Group_EndpointPrimitiveRW_AVR8
 560:../../tmk_core/protocol/lufa/LUFA-git/LUFA/Drivers/USB/Class/Device/../../Core/AVR8/../AVR8/Endpoint_AVR8.h **** 			 */
 561:../../tmk_core/protocol/lufa/LUFA-git/LUFA/Drivers/USB/Class/Device/../../Core/AVR8/../AVR8/Endpoint_AVR8.h **** 			static inline void Endpoint_Discard_8(void) ATTR_ALWAYS_INLINE;
 562:../../tmk_core/protocol/lufa/LUFA-git/LUFA/Drivers/USB/Class/Device/../../Core/AVR8/../AVR8/Endpoint_AVR8.h **** 			static inline void Endpoint_Discard_8(void)
 563:../../tmk_core/protocol/lufa/LUFA-git/LUFA/Drivers/USB/Class/Device/../../Core/AVR8/../AVR8/Endpoint_AVR8.h **** 			{
 564:../../tmk_core/protocol/lufa/LUFA-git/LUFA/Drivers/USB/Class/Device/../../Core/AVR8/../AVR8/Endpoint_AVR8.h **** 				uint8_t Dummy;
 565:../../tmk_core/protocol/lufa/LUFA-git/LUFA/Drivers/USB/Class/Device/../../Core/AVR8/../AVR8/Endpoint_AVR8.h **** 
 566:../../tmk_core/protocol/lufa/LUFA-git/LUFA/Drivers/USB/Class/Device/../../Core/AVR8/../AVR8/Endpoint_AVR8.h **** 				Dummy = UEDATX;
 567:../../tmk_core/protocol/lufa/LUFA-git/LUFA/Drivers/USB/Class/Device/../../Core/AVR8/../AVR8/Endpoint_AVR8.h **** 
 568:../../tmk_core/protocol/lufa/LUFA-git/LUFA/Drivers/USB/Class/Device/../../Core/AVR8/../AVR8/Endpoint_AVR8.h **** 				(void)Dummy;
 569:../../tmk_core/protocol/lufa/LUFA-git/LUFA/Drivers/USB/Class/Device/../../Core/AVR8/../AVR8/Endpoint_AVR8.h **** 			}
 570:../../tmk_core/protocol/lufa/LUFA-git/LUFA/Drivers/USB/Class/Device/../../Core/AVR8/../AVR8/Endpoint_AVR8.h **** 
 571:../../tmk_core/protocol/lufa/LUFA-git/LUFA/Drivers/USB/Class/Device/../../Core/AVR8/../AVR8/Endpoint_AVR8.h **** 			/** Reads two bytes from the currently selected endpoint's bank in little endian format, for OUT
 572:../../tmk_core/protocol/lufa/LUFA-git/LUFA/Drivers/USB/Class/Device/../../Core/AVR8/../AVR8/Endpoint_AVR8.h **** 			 *  direction endpoints.
 573:../../tmk_core/protocol/lufa/LUFA-git/LUFA/Drivers/USB/Class/Device/../../Core/AVR8/../AVR8/Endpoint_AVR8.h **** 			 *
 574:../../tmk_core/protocol/lufa/LUFA-git/LUFA/Drivers/USB/Class/Device/../../Core/AVR8/../AVR8/Endpoint_AVR8.h **** 			 *  \ingroup Group_EndpointPrimitiveRW_AVR8
 575:../../tmk_core/protocol/lufa/LUFA-git/LUFA/Drivers/USB/Class/Device/../../Core/AVR8/../AVR8/Endpoint_AVR8.h **** 			 *
 576:../../tmk_core/protocol/lufa/LUFA-git/LUFA/Drivers/USB/Class/Device/../../Core/AVR8/../AVR8/Endpoint_AVR8.h **** 			 *  \return Next two bytes in the currently selected endpoint's FIFO buffer.
 577:../../tmk_core/protocol/lufa/LUFA-git/LUFA/Drivers/USB/Class/Device/../../Core/AVR8/../AVR8/Endpoint_AVR8.h **** 			 */
 578:../../tmk_core/protocol/lufa/LUFA-git/LUFA/Drivers/USB/Class/Device/../../Core/AVR8/../AVR8/Endpoint_AVR8.h **** 			static inline uint16_t Endpoint_Read_16_LE(void) ATTR_WARN_UNUSED_RESULT ATTR_ALWAYS_INLINE;
 579:../../tmk_core/protocol/lufa/LUFA-git/LUFA/Drivers/USB/Class/Device/../../Core/AVR8/../AVR8/Endpoint_AVR8.h **** 			static inline uint16_t Endpoint_Read_16_LE(void)
 580:../../tmk_core/protocol/lufa/LUFA-git/LUFA/Drivers/USB/Class/Device/../../Core/AVR8/../AVR8/Endpoint_AVR8.h **** 			{
 581:../../tmk_core/protocol/lufa/LUFA-git/LUFA/Drivers/USB/Class/Device/../../Core/AVR8/../AVR8/Endpoint_AVR8.h **** 				union
 582:../../tmk_core/protocol/lufa/LUFA-git/LUFA/Drivers/USB/Class/Device/../../Core/AVR8/../AVR8/Endpoint_AVR8.h **** 				{
 583:../../tmk_core/protocol/lufa/LUFA-git/LUFA/Drivers/USB/Class/Device/../../Core/AVR8/../AVR8/Endpoint_AVR8.h **** 					uint16_t Value;
 584:../../tmk_core/protocol/lufa/LUFA-git/LUFA/Drivers/USB/Class/Device/../../Core/AVR8/../AVR8/Endpoint_AVR8.h **** 					uint8_t  Bytes[2];
 585:../../tmk_core/protocol/lufa/LUFA-git/LUFA/Drivers/USB/Class/Device/../../Core/AVR8/../AVR8/Endpoint_AVR8.h **** 				} Data;
 586:../../tmk_core/protocol/lufa/LUFA-git/LUFA/Drivers/USB/Class/Device/../../Core/AVR8/../AVR8/Endpoint_AVR8.h **** 
 587:../../tmk_core/protocol/lufa/LUFA-git/LUFA/Drivers/USB/Class/Device/../../Core/AVR8/../AVR8/Endpoint_AVR8.h **** 				Data.Bytes[0] = UEDATX;
 588:../../tmk_core/protocol/lufa/LUFA-git/LUFA/Drivers/USB/Class/Device/../../Core/AVR8/../AVR8/Endpoint_AVR8.h **** 				Data.Bytes[1] = UEDATX;
 589:../../tmk_core/protocol/lufa/LUFA-git/LUFA/Drivers/USB/Class/Device/../../Core/AVR8/../AVR8/Endpoint_AVR8.h **** 
 590:../../tmk_core/protocol/lufa/LUFA-git/LUFA/Drivers/USB/Class/Device/../../Core/AVR8/../AVR8/Endpoint_AVR8.h **** 				return Data.Value;
 591:../../tmk_core/protocol/lufa/LUFA-git/LUFA/Drivers/USB/Class/Device/../../Core/AVR8/../AVR8/Endpoint_AVR8.h **** 			}
 592:../../tmk_core/protocol/lufa/LUFA-git/LUFA/Drivers/USB/Class/Device/../../Core/AVR8/../AVR8/Endpoint_AVR8.h **** 
 593:../../tmk_core/protocol/lufa/LUFA-git/LUFA/Drivers/USB/Class/Device/../../Core/AVR8/../AVR8/Endpoint_AVR8.h **** 			/** Reads two bytes from the currently selected endpoint's bank in big endian format, for OUT
 594:../../tmk_core/protocol/lufa/LUFA-git/LUFA/Drivers/USB/Class/Device/../../Core/AVR8/../AVR8/Endpoint_AVR8.h **** 			 *  direction endpoints.
 595:../../tmk_core/protocol/lufa/LUFA-git/LUFA/Drivers/USB/Class/Device/../../Core/AVR8/../AVR8/Endpoint_AVR8.h **** 			 *
 596:../../tmk_core/protocol/lufa/LUFA-git/LUFA/Drivers/USB/Class/Device/../../Core/AVR8/../AVR8/Endpoint_AVR8.h **** 			 *  \ingroup Group_EndpointPrimitiveRW_AVR8
 597:../../tmk_core/protocol/lufa/LUFA-git/LUFA/Drivers/USB/Class/Device/../../Core/AVR8/../AVR8/Endpoint_AVR8.h **** 			 *
 598:../../tmk_core/protocol/lufa/LUFA-git/LUFA/Drivers/USB/Class/Device/../../Core/AVR8/../AVR8/Endpoint_AVR8.h **** 			 *  \return Next two bytes in the currently selected endpoint's FIFO buffer.
 599:../../tmk_core/protocol/lufa/LUFA-git/LUFA/Drivers/USB/Class/Device/../../Core/AVR8/../AVR8/Endpoint_AVR8.h **** 			 */
 600:../../tmk_core/protocol/lufa/LUFA-git/LUFA/Drivers/USB/Class/Device/../../Core/AVR8/../AVR8/Endpoint_AVR8.h **** 			static inline uint16_t Endpoint_Read_16_BE(void) ATTR_WARN_UNUSED_RESULT ATTR_ALWAYS_INLINE;
 601:../../tmk_core/protocol/lufa/LUFA-git/LUFA/Drivers/USB/Class/Device/../../Core/AVR8/../AVR8/Endpoint_AVR8.h **** 			static inline uint16_t Endpoint_Read_16_BE(void)
 602:../../tmk_core/protocol/lufa/LUFA-git/LUFA/Drivers/USB/Class/Device/../../Core/AVR8/../AVR8/Endpoint_AVR8.h **** 			{
 603:../../tmk_core/protocol/lufa/LUFA-git/LUFA/Drivers/USB/Class/Device/../../Core/AVR8/../AVR8/Endpoint_AVR8.h **** 				union
 604:../../tmk_core/protocol/lufa/LUFA-git/LUFA/Drivers/USB/Class/Device/../../Core/AVR8/../AVR8/Endpoint_AVR8.h **** 				{
 605:../../tmk_core/protocol/lufa/LUFA-git/LUFA/Drivers/USB/Class/Device/../../Core/AVR8/../AVR8/Endpoint_AVR8.h **** 					uint16_t Value;
 606:../../tmk_core/protocol/lufa/LUFA-git/LUFA/Drivers/USB/Class/Device/../../Core/AVR8/../AVR8/Endpoint_AVR8.h **** 					uint8_t  Bytes[2];
 607:../../tmk_core/protocol/lufa/LUFA-git/LUFA/Drivers/USB/Class/Device/../../Core/AVR8/../AVR8/Endpoint_AVR8.h **** 				} Data;
 608:../../tmk_core/protocol/lufa/LUFA-git/LUFA/Drivers/USB/Class/Device/../../Core/AVR8/../AVR8/Endpoint_AVR8.h **** 
 609:../../tmk_core/protocol/lufa/LUFA-git/LUFA/Drivers/USB/Class/Device/../../Core/AVR8/../AVR8/Endpoint_AVR8.h **** 				Data.Bytes[1] = UEDATX;
 610:../../tmk_core/protocol/lufa/LUFA-git/LUFA/Drivers/USB/Class/Device/../../Core/AVR8/../AVR8/Endpoint_AVR8.h **** 				Data.Bytes[0] = UEDATX;
 611:../../tmk_core/protocol/lufa/LUFA-git/LUFA/Drivers/USB/Class/Device/../../Core/AVR8/../AVR8/Endpoint_AVR8.h **** 
 612:../../tmk_core/protocol/lufa/LUFA-git/LUFA/Drivers/USB/Class/Device/../../Core/AVR8/../AVR8/Endpoint_AVR8.h **** 				return Data.Value;
 613:../../tmk_core/protocol/lufa/LUFA-git/LUFA/Drivers/USB/Class/Device/../../Core/AVR8/../AVR8/Endpoint_AVR8.h **** 			}
 614:../../tmk_core/protocol/lufa/LUFA-git/LUFA/Drivers/USB/Class/Device/../../Core/AVR8/../AVR8/Endpoint_AVR8.h **** 
 615:../../tmk_core/protocol/lufa/LUFA-git/LUFA/Drivers/USB/Class/Device/../../Core/AVR8/../AVR8/Endpoint_AVR8.h **** 			/** Writes two bytes to the currently selected endpoint's bank in little endian format, for IN
 616:../../tmk_core/protocol/lufa/LUFA-git/LUFA/Drivers/USB/Class/Device/../../Core/AVR8/../AVR8/Endpoint_AVR8.h **** 			 *  direction endpoints.
 617:../../tmk_core/protocol/lufa/LUFA-git/LUFA/Drivers/USB/Class/Device/../../Core/AVR8/../AVR8/Endpoint_AVR8.h **** 			 *
 618:../../tmk_core/protocol/lufa/LUFA-git/LUFA/Drivers/USB/Class/Device/../../Core/AVR8/../AVR8/Endpoint_AVR8.h **** 			 *  \ingroup Group_EndpointPrimitiveRW_AVR8
 619:../../tmk_core/protocol/lufa/LUFA-git/LUFA/Drivers/USB/Class/Device/../../Core/AVR8/../AVR8/Endpoint_AVR8.h **** 			 *
 620:../../tmk_core/protocol/lufa/LUFA-git/LUFA/Drivers/USB/Class/Device/../../Core/AVR8/../AVR8/Endpoint_AVR8.h **** 			 *  \param[in] Data  Data to write to the currently selected endpoint's FIFO buffer.
 621:../../tmk_core/protocol/lufa/LUFA-git/LUFA/Drivers/USB/Class/Device/../../Core/AVR8/../AVR8/Endpoint_AVR8.h **** 			 */
 622:../../tmk_core/protocol/lufa/LUFA-git/LUFA/Drivers/USB/Class/Device/../../Core/AVR8/../AVR8/Endpoint_AVR8.h **** 			static inline void Endpoint_Write_16_LE(const uint16_t Data) ATTR_ALWAYS_INLINE;
 623:../../tmk_core/protocol/lufa/LUFA-git/LUFA/Drivers/USB/Class/Device/../../Core/AVR8/../AVR8/Endpoint_AVR8.h **** 			static inline void Endpoint_Write_16_LE(const uint16_t Data)
 624:../../tmk_core/protocol/lufa/LUFA-git/LUFA/Drivers/USB/Class/Device/../../Core/AVR8/../AVR8/Endpoint_AVR8.h **** 			{
 625:../../tmk_core/protocol/lufa/LUFA-git/LUFA/Drivers/USB/Class/Device/../../Core/AVR8/../AVR8/Endpoint_AVR8.h **** 				UEDATX = (Data & 0xFF);
 626:../../tmk_core/protocol/lufa/LUFA-git/LUFA/Drivers/USB/Class/Device/../../Core/AVR8/../AVR8/Endpoint_AVR8.h **** 				UEDATX = (Data >> 8);
 627:../../tmk_core/protocol/lufa/LUFA-git/LUFA/Drivers/USB/Class/Device/../../Core/AVR8/../AVR8/Endpoint_AVR8.h **** 			}
 628:../../tmk_core/protocol/lufa/LUFA-git/LUFA/Drivers/USB/Class/Device/../../Core/AVR8/../AVR8/Endpoint_AVR8.h **** 
 629:../../tmk_core/protocol/lufa/LUFA-git/LUFA/Drivers/USB/Class/Device/../../Core/AVR8/../AVR8/Endpoint_AVR8.h **** 			/** Writes two bytes to the currently selected endpoint's bank in big endian format, for IN
 630:../../tmk_core/protocol/lufa/LUFA-git/LUFA/Drivers/USB/Class/Device/../../Core/AVR8/../AVR8/Endpoint_AVR8.h **** 			 *  direction endpoints.
 631:../../tmk_core/protocol/lufa/LUFA-git/LUFA/Drivers/USB/Class/Device/../../Core/AVR8/../AVR8/Endpoint_AVR8.h **** 			 *
 632:../../tmk_core/protocol/lufa/LUFA-git/LUFA/Drivers/USB/Class/Device/../../Core/AVR8/../AVR8/Endpoint_AVR8.h **** 			 *  \ingroup Group_EndpointPrimitiveRW_AVR8
 633:../../tmk_core/protocol/lufa/LUFA-git/LUFA/Drivers/USB/Class/Device/../../Core/AVR8/../AVR8/Endpoint_AVR8.h **** 			 *
 634:../../tmk_core/protocol/lufa/LUFA-git/LUFA/Drivers/USB/Class/Device/../../Core/AVR8/../AVR8/Endpoint_AVR8.h **** 			 *  \param[in] Data  Data to write to the currently selected endpoint's FIFO buffer.
 635:../../tmk_core/protocol/lufa/LUFA-git/LUFA/Drivers/USB/Class/Device/../../Core/AVR8/../AVR8/Endpoint_AVR8.h **** 			 */
 636:../../tmk_core/protocol/lufa/LUFA-git/LUFA/Drivers/USB/Class/Device/../../Core/AVR8/../AVR8/Endpoint_AVR8.h **** 			static inline void Endpoint_Write_16_BE(const uint16_t Data) ATTR_ALWAYS_INLINE;
 637:../../tmk_core/protocol/lufa/LUFA-git/LUFA/Drivers/USB/Class/Device/../../Core/AVR8/../AVR8/Endpoint_AVR8.h **** 			static inline void Endpoint_Write_16_BE(const uint16_t Data)
 638:../../tmk_core/protocol/lufa/LUFA-git/LUFA/Drivers/USB/Class/Device/../../Core/AVR8/../AVR8/Endpoint_AVR8.h **** 			{
 639:../../tmk_core/protocol/lufa/LUFA-git/LUFA/Drivers/USB/Class/Device/../../Core/AVR8/../AVR8/Endpoint_AVR8.h **** 				UEDATX = (Data >> 8);
 640:../../tmk_core/protocol/lufa/LUFA-git/LUFA/Drivers/USB/Class/Device/../../Core/AVR8/../AVR8/Endpoint_AVR8.h **** 				UEDATX = (Data & 0xFF);
 641:../../tmk_core/protocol/lufa/LUFA-git/LUFA/Drivers/USB/Class/Device/../../Core/AVR8/../AVR8/Endpoint_AVR8.h **** 			}
 642:../../tmk_core/protocol/lufa/LUFA-git/LUFA/Drivers/USB/Class/Device/../../Core/AVR8/../AVR8/Endpoint_AVR8.h **** 
 643:../../tmk_core/protocol/lufa/LUFA-git/LUFA/Drivers/USB/Class/Device/../../Core/AVR8/../AVR8/Endpoint_AVR8.h **** 			/** Discards two bytes from the currently selected endpoint's bank, for OUT direction endpoints.
 644:../../tmk_core/protocol/lufa/LUFA-git/LUFA/Drivers/USB/Class/Device/../../Core/AVR8/../AVR8/Endpoint_AVR8.h **** 			 *
 645:../../tmk_core/protocol/lufa/LUFA-git/LUFA/Drivers/USB/Class/Device/../../Core/AVR8/../AVR8/Endpoint_AVR8.h **** 			 *  \ingroup Group_EndpointPrimitiveRW_AVR8
 646:../../tmk_core/protocol/lufa/LUFA-git/LUFA/Drivers/USB/Class/Device/../../Core/AVR8/../AVR8/Endpoint_AVR8.h **** 			 */
 647:../../tmk_core/protocol/lufa/LUFA-git/LUFA/Drivers/USB/Class/Device/../../Core/AVR8/../AVR8/Endpoint_AVR8.h **** 			static inline void Endpoint_Discard_16(void) ATTR_ALWAYS_INLINE;
 648:../../tmk_core/protocol/lufa/LUFA-git/LUFA/Drivers/USB/Class/Device/../../Core/AVR8/../AVR8/Endpoint_AVR8.h **** 			static inline void Endpoint_Discard_16(void)
 649:../../tmk_core/protocol/lufa/LUFA-git/LUFA/Drivers/USB/Class/Device/../../Core/AVR8/../AVR8/Endpoint_AVR8.h **** 			{
 650:../../tmk_core/protocol/lufa/LUFA-git/LUFA/Drivers/USB/Class/Device/../../Core/AVR8/../AVR8/Endpoint_AVR8.h **** 				uint8_t Dummy;
 651:../../tmk_core/protocol/lufa/LUFA-git/LUFA/Drivers/USB/Class/Device/../../Core/AVR8/../AVR8/Endpoint_AVR8.h **** 
 652:../../tmk_core/protocol/lufa/LUFA-git/LUFA/Drivers/USB/Class/Device/../../Core/AVR8/../AVR8/Endpoint_AVR8.h **** 				Dummy = UEDATX;
 653:../../tmk_core/protocol/lufa/LUFA-git/LUFA/Drivers/USB/Class/Device/../../Core/AVR8/../AVR8/Endpoint_AVR8.h **** 				Dummy = UEDATX;
 654:../../tmk_core/protocol/lufa/LUFA-git/LUFA/Drivers/USB/Class/Device/../../Core/AVR8/../AVR8/Endpoint_AVR8.h **** 
 655:../../tmk_core/protocol/lufa/LUFA-git/LUFA/Drivers/USB/Class/Device/../../Core/AVR8/../AVR8/Endpoint_AVR8.h **** 				(void)Dummy;
 656:../../tmk_core/protocol/lufa/LUFA-git/LUFA/Drivers/USB/Class/Device/../../Core/AVR8/../AVR8/Endpoint_AVR8.h **** 			}
 657:../../tmk_core/protocol/lufa/LUFA-git/LUFA/Drivers/USB/Class/Device/../../Core/AVR8/../AVR8/Endpoint_AVR8.h **** 
 658:../../tmk_core/protocol/lufa/LUFA-git/LUFA/Drivers/USB/Class/Device/../../Core/AVR8/../AVR8/Endpoint_AVR8.h **** 			/** Reads four bytes from the currently selected endpoint's bank in little endian format, for OU
 659:../../tmk_core/protocol/lufa/LUFA-git/LUFA/Drivers/USB/Class/Device/../../Core/AVR8/../AVR8/Endpoint_AVR8.h **** 			 *  direction endpoints.
 660:../../tmk_core/protocol/lufa/LUFA-git/LUFA/Drivers/USB/Class/Device/../../Core/AVR8/../AVR8/Endpoint_AVR8.h **** 			 *
 661:../../tmk_core/protocol/lufa/LUFA-git/LUFA/Drivers/USB/Class/Device/../../Core/AVR8/../AVR8/Endpoint_AVR8.h **** 			 *  \ingroup Group_EndpointPrimitiveRW_AVR8
 662:../../tmk_core/protocol/lufa/LUFA-git/LUFA/Drivers/USB/Class/Device/../../Core/AVR8/../AVR8/Endpoint_AVR8.h **** 			 *
 663:../../tmk_core/protocol/lufa/LUFA-git/LUFA/Drivers/USB/Class/Device/../../Core/AVR8/../AVR8/Endpoint_AVR8.h **** 			 *  \return Next four bytes in the currently selected endpoint's FIFO buffer.
 664:../../tmk_core/protocol/lufa/LUFA-git/LUFA/Drivers/USB/Class/Device/../../Core/AVR8/../AVR8/Endpoint_AVR8.h **** 			 */
 665:../../tmk_core/protocol/lufa/LUFA-git/LUFA/Drivers/USB/Class/Device/../../Core/AVR8/../AVR8/Endpoint_AVR8.h **** 			static inline uint32_t Endpoint_Read_32_LE(void) ATTR_WARN_UNUSED_RESULT ATTR_ALWAYS_INLINE;
 666:../../tmk_core/protocol/lufa/LUFA-git/LUFA/Drivers/USB/Class/Device/../../Core/AVR8/../AVR8/Endpoint_AVR8.h **** 			static inline uint32_t Endpoint_Read_32_LE(void)
 667:../../tmk_core/protocol/lufa/LUFA-git/LUFA/Drivers/USB/Class/Device/../../Core/AVR8/../AVR8/Endpoint_AVR8.h **** 			{
 668:../../tmk_core/protocol/lufa/LUFA-git/LUFA/Drivers/USB/Class/Device/../../Core/AVR8/../AVR8/Endpoint_AVR8.h **** 				union
 669:../../tmk_core/protocol/lufa/LUFA-git/LUFA/Drivers/USB/Class/Device/../../Core/AVR8/../AVR8/Endpoint_AVR8.h **** 				{
 670:../../tmk_core/protocol/lufa/LUFA-git/LUFA/Drivers/USB/Class/Device/../../Core/AVR8/../AVR8/Endpoint_AVR8.h **** 					uint32_t Value;
 671:../../tmk_core/protocol/lufa/LUFA-git/LUFA/Drivers/USB/Class/Device/../../Core/AVR8/../AVR8/Endpoint_AVR8.h **** 					uint8_t  Bytes[4];
 672:../../tmk_core/protocol/lufa/LUFA-git/LUFA/Drivers/USB/Class/Device/../../Core/AVR8/../AVR8/Endpoint_AVR8.h **** 				} Data;
 673:../../tmk_core/protocol/lufa/LUFA-git/LUFA/Drivers/USB/Class/Device/../../Core/AVR8/../AVR8/Endpoint_AVR8.h **** 
 674:../../tmk_core/protocol/lufa/LUFA-git/LUFA/Drivers/USB/Class/Device/../../Core/AVR8/../AVR8/Endpoint_AVR8.h **** 				Data.Bytes[0] = UEDATX;
 675:../../tmk_core/protocol/lufa/LUFA-git/LUFA/Drivers/USB/Class/Device/../../Core/AVR8/../AVR8/Endpoint_AVR8.h **** 				Data.Bytes[1] = UEDATX;
 676:../../tmk_core/protocol/lufa/LUFA-git/LUFA/Drivers/USB/Class/Device/../../Core/AVR8/../AVR8/Endpoint_AVR8.h **** 				Data.Bytes[2] = UEDATX;
 677:../../tmk_core/protocol/lufa/LUFA-git/LUFA/Drivers/USB/Class/Device/../../Core/AVR8/../AVR8/Endpoint_AVR8.h **** 				Data.Bytes[3] = UEDATX;
 678:../../tmk_core/protocol/lufa/LUFA-git/LUFA/Drivers/USB/Class/Device/../../Core/AVR8/../AVR8/Endpoint_AVR8.h **** 
 679:../../tmk_core/protocol/lufa/LUFA-git/LUFA/Drivers/USB/Class/Device/../../Core/AVR8/../AVR8/Endpoint_AVR8.h **** 				return Data.Value;
 680:../../tmk_core/protocol/lufa/LUFA-git/LUFA/Drivers/USB/Class/Device/../../Core/AVR8/../AVR8/Endpoint_AVR8.h **** 			}
 681:../../tmk_core/protocol/lufa/LUFA-git/LUFA/Drivers/USB/Class/Device/../../Core/AVR8/../AVR8/Endpoint_AVR8.h **** 
 682:../../tmk_core/protocol/lufa/LUFA-git/LUFA/Drivers/USB/Class/Device/../../Core/AVR8/../AVR8/Endpoint_AVR8.h **** 			/** Reads four bytes from the currently selected endpoint's bank in big endian format, for OUT
 683:../../tmk_core/protocol/lufa/LUFA-git/LUFA/Drivers/USB/Class/Device/../../Core/AVR8/../AVR8/Endpoint_AVR8.h **** 			 *  direction endpoints.
 684:../../tmk_core/protocol/lufa/LUFA-git/LUFA/Drivers/USB/Class/Device/../../Core/AVR8/../AVR8/Endpoint_AVR8.h **** 			 *
 685:../../tmk_core/protocol/lufa/LUFA-git/LUFA/Drivers/USB/Class/Device/../../Core/AVR8/../AVR8/Endpoint_AVR8.h **** 			 *  \ingroup Group_EndpointPrimitiveRW_AVR8
 686:../../tmk_core/protocol/lufa/LUFA-git/LUFA/Drivers/USB/Class/Device/../../Core/AVR8/../AVR8/Endpoint_AVR8.h **** 			 *
 687:../../tmk_core/protocol/lufa/LUFA-git/LUFA/Drivers/USB/Class/Device/../../Core/AVR8/../AVR8/Endpoint_AVR8.h **** 			 *  \return Next four bytes in the currently selected endpoint's FIFO buffer.
 688:../../tmk_core/protocol/lufa/LUFA-git/LUFA/Drivers/USB/Class/Device/../../Core/AVR8/../AVR8/Endpoint_AVR8.h **** 			 */
 689:../../tmk_core/protocol/lufa/LUFA-git/LUFA/Drivers/USB/Class/Device/../../Core/AVR8/../AVR8/Endpoint_AVR8.h **** 			static inline uint32_t Endpoint_Read_32_BE(void) ATTR_WARN_UNUSED_RESULT ATTR_ALWAYS_INLINE;
 690:../../tmk_core/protocol/lufa/LUFA-git/LUFA/Drivers/USB/Class/Device/../../Core/AVR8/../AVR8/Endpoint_AVR8.h **** 			static inline uint32_t Endpoint_Read_32_BE(void)
 691:../../tmk_core/protocol/lufa/LUFA-git/LUFA/Drivers/USB/Class/Device/../../Core/AVR8/../AVR8/Endpoint_AVR8.h **** 			{
 692:../../tmk_core/protocol/lufa/LUFA-git/LUFA/Drivers/USB/Class/Device/../../Core/AVR8/../AVR8/Endpoint_AVR8.h **** 				union
 693:../../tmk_core/protocol/lufa/LUFA-git/LUFA/Drivers/USB/Class/Device/../../Core/AVR8/../AVR8/Endpoint_AVR8.h **** 				{
 694:../../tmk_core/protocol/lufa/LUFA-git/LUFA/Drivers/USB/Class/Device/../../Core/AVR8/../AVR8/Endpoint_AVR8.h **** 					uint32_t Value;
 695:../../tmk_core/protocol/lufa/LUFA-git/LUFA/Drivers/USB/Class/Device/../../Core/AVR8/../AVR8/Endpoint_AVR8.h **** 					uint8_t  Bytes[4];
 696:../../tmk_core/protocol/lufa/LUFA-git/LUFA/Drivers/USB/Class/Device/../../Core/AVR8/../AVR8/Endpoint_AVR8.h **** 				} Data;
 697:../../tmk_core/protocol/lufa/LUFA-git/LUFA/Drivers/USB/Class/Device/../../Core/AVR8/../AVR8/Endpoint_AVR8.h **** 
 698:../../tmk_core/protocol/lufa/LUFA-git/LUFA/Drivers/USB/Class/Device/../../Core/AVR8/../AVR8/Endpoint_AVR8.h **** 				Data.Bytes[3] = UEDATX;
 699:../../tmk_core/protocol/lufa/LUFA-git/LUFA/Drivers/USB/Class/Device/../../Core/AVR8/../AVR8/Endpoint_AVR8.h **** 				Data.Bytes[2] = UEDATX;
 700:../../tmk_core/protocol/lufa/LUFA-git/LUFA/Drivers/USB/Class/Device/../../Core/AVR8/../AVR8/Endpoint_AVR8.h **** 				Data.Bytes[1] = UEDATX;
 701:../../tmk_core/protocol/lufa/LUFA-git/LUFA/Drivers/USB/Class/Device/../../Core/AVR8/../AVR8/Endpoint_AVR8.h **** 				Data.Bytes[0] = UEDATX;
 702:../../tmk_core/protocol/lufa/LUFA-git/LUFA/Drivers/USB/Class/Device/../../Core/AVR8/../AVR8/Endpoint_AVR8.h **** 
 703:../../tmk_core/protocol/lufa/LUFA-git/LUFA/Drivers/USB/Class/Device/../../Core/AVR8/../AVR8/Endpoint_AVR8.h **** 				return Data.Value;
 704:../../tmk_core/protocol/lufa/LUFA-git/LUFA/Drivers/USB/Class/Device/../../Core/AVR8/../AVR8/Endpoint_AVR8.h **** 			}
 705:../../tmk_core/protocol/lufa/LUFA-git/LUFA/Drivers/USB/Class/Device/../../Core/AVR8/../AVR8/Endpoint_AVR8.h **** 
 706:../../tmk_core/protocol/lufa/LUFA-git/LUFA/Drivers/USB/Class/Device/../../Core/AVR8/../AVR8/Endpoint_AVR8.h **** 			/** Writes four bytes to the currently selected endpoint's bank in little endian format, for IN
 707:../../tmk_core/protocol/lufa/LUFA-git/LUFA/Drivers/USB/Class/Device/../../Core/AVR8/../AVR8/Endpoint_AVR8.h **** 			 *  direction endpoints.
 708:../../tmk_core/protocol/lufa/LUFA-git/LUFA/Drivers/USB/Class/Device/../../Core/AVR8/../AVR8/Endpoint_AVR8.h **** 			 *
 709:../../tmk_core/protocol/lufa/LUFA-git/LUFA/Drivers/USB/Class/Device/../../Core/AVR8/../AVR8/Endpoint_AVR8.h **** 			 *  \ingroup Group_EndpointPrimitiveRW_AVR8
 710:../../tmk_core/protocol/lufa/LUFA-git/LUFA/Drivers/USB/Class/Device/../../Core/AVR8/../AVR8/Endpoint_AVR8.h **** 			 *
 711:../../tmk_core/protocol/lufa/LUFA-git/LUFA/Drivers/USB/Class/Device/../../Core/AVR8/../AVR8/Endpoint_AVR8.h **** 			 *  \param[in] Data  Data to write to the currently selected endpoint's FIFO buffer.
 712:../../tmk_core/protocol/lufa/LUFA-git/LUFA/Drivers/USB/Class/Device/../../Core/AVR8/../AVR8/Endpoint_AVR8.h **** 			 */
 713:../../tmk_core/protocol/lufa/LUFA-git/LUFA/Drivers/USB/Class/Device/../../Core/AVR8/../AVR8/Endpoint_AVR8.h **** 			static inline void Endpoint_Write_32_LE(const uint32_t Data) ATTR_ALWAYS_INLINE;
 714:../../tmk_core/protocol/lufa/LUFA-git/LUFA/Drivers/USB/Class/Device/../../Core/AVR8/../AVR8/Endpoint_AVR8.h **** 			static inline void Endpoint_Write_32_LE(const uint32_t Data)
 715:../../tmk_core/protocol/lufa/LUFA-git/LUFA/Drivers/USB/Class/Device/../../Core/AVR8/../AVR8/Endpoint_AVR8.h **** 			{
 716:../../tmk_core/protocol/lufa/LUFA-git/LUFA/Drivers/USB/Class/Device/../../Core/AVR8/../AVR8/Endpoint_AVR8.h **** 				UEDATX = (Data &  0xFF);
 1091               		.loc 2 716 0
 1092 0066 8093 F100 		sts 241,r24
 717:../../tmk_core/protocol/lufa/LUFA-git/LUFA/Drivers/USB/Class/Device/../../Core/AVR8/../AVR8/Endpoint_AVR8.h **** 				UEDATX = (Data >> 8);
 1093               		.loc 2 717 0
 1094 006a 492F      		mov r20,r25
 1095 006c 5A2F      		mov r21,r26
 1096 006e 6B2F      		mov r22,r27
 1097 0070 7727      		clr r23
 1098 0072 4093 F100 		sts 241,r20
 718:../../tmk_core/protocol/lufa/LUFA-git/LUFA/Drivers/USB/Class/Device/../../Core/AVR8/../AVR8/Endpoint_AVR8.h **** 				UEDATX = (Data >> 16);
 1099               		.loc 2 718 0
 1100 0076 AD01      		movw r20,r26
 1101 0078 6627      		clr r22
 1102 007a 7727      		clr r23
 1103 007c 4093 F100 		sts 241,r20
 719:../../tmk_core/protocol/lufa/LUFA-git/LUFA/Drivers/USB/Class/Device/../../Core/AVR8/../AVR8/Endpoint_AVR8.h **** 				UEDATX = (Data >> 24);
 1104               		.loc 2 719 0
 1105 0080 8B2F      		mov r24,r27
 1106 0082 9927      		clr r25
 1107 0084 AA27      		clr r26
 1108 0086 BB27      		clr r27
 1109               	.LVL81:
 1110 0088 8093 F100 		sts 241,r24
 1111               	.LBE149:
 1112               	.LBE148:
  58:../../tmk_core/protocol/lufa/LUFA-git/LUFA/Drivers/USB/Class/Device/CDCClassDevice.c **** 				Endpoint_Write_8(CDCInterfaceInfo->State.LineEncoding.ParityType);
 1113               		.loc 1 58 0
 1114 008c 888D      		ldd r24,Y+24
 1115               	.LVL82:
 1116               	.LBB150:
 1117               	.LBB151:
 554:../../tmk_core/protocol/lufa/LUFA-git/LUFA/Drivers/USB/Class/Device/../../Core/AVR8/../AVR8/Endpoint_AVR8.h **** 			}
 1118               		.loc 2 554 0
 1119 008e 8093 F100 		sts 241,r24
 1120               	.LBE151:
 1121               	.LBE150:
  59:../../tmk_core/protocol/lufa/LUFA-git/LUFA/Drivers/USB/Class/Device/CDCClassDevice.c **** 				Endpoint_Write_8(CDCInterfaceInfo->State.LineEncoding.DataBits);
 1122               		.loc 1 59 0
 1123 0092 898D      		ldd r24,Y+25
 1124               	.LVL83:
 1125               	.LBB152:
 1126               	.LBB153:
 554:../../tmk_core/protocol/lufa/LUFA-git/LUFA/Drivers/USB/Class/Device/../../Core/AVR8/../AVR8/Endpoint_AVR8.h **** 			}
 1127               		.loc 2 554 0
 1128 0094 8093 F100 		sts 241,r24
 1129               	.LVL84:
 1130               	.LBE153:
 1131               	.LBE152:
  60:../../tmk_core/protocol/lufa/LUFA-git/LUFA/Drivers/USB/Class/Device/CDCClassDevice.c **** 
 1132               		.loc 1 60 0
 1133 0098 8A8D      		ldd r24,Y+26
 1134               	.LVL85:
 1135               	.LBB154:
 1136               	.LBB155:
 554:../../tmk_core/protocol/lufa/LUFA-git/LUFA/Drivers/USB/Class/Device/../../Core/AVR8/../AVR8/Endpoint_AVR8.h **** 			}
 1137               		.loc 2 554 0
 1138 009a 8093 F100 		sts 241,r24
 1139               	.LVL86:
 1140               	.LBE155:
 1141               	.LBE154:
 1142               	.LBB156:
 1143               	.LBB157:
 456:../../tmk_core/protocol/lufa/LUFA-git/LUFA/Drivers/USB/Class/Device/../../Core/AVR8/../AVR8/Endpoint_AVR8.h **** 				#else
 1144               		.loc 2 456 0
 1145 009e 8091 E800 		lds r24,232
 1146               	.LVL87:
 1147 00a2 8E77      		andi r24,lo8(126)
 1148 00a4 8093 E800 		sts 232,r24
 1149               	.LVL88:
 1150               	/* epilogue start */
 1151               	.LBE157:
 1152               	.LBE156:
 113:../../tmk_core/protocol/lufa/LUFA-git/LUFA/Drivers/USB/Class/Device/CDCClassDevice.c **** 
 1153               		.loc 1 113 0
 1154 00a8 DF91      		pop r29
 1155 00aa CF91      		pop r28
 1156               	.LVL89:
  63:../../tmk_core/protocol/lufa/LUFA-git/LUFA/Drivers/USB/Class/Device/CDCClassDevice.c **** 			}
 1157               		.loc 1 63 0
 1158 00ac 0C94 0000 		jmp Endpoint_ClearStatusStage
 1159               	.LVL90:
 1160               	.L95:
  68:../../tmk_core/protocol/lufa/LUFA-git/LUFA/Drivers/USB/Class/Device/CDCClassDevice.c **** 			{
 1161               		.loc 1 68 0
 1162 00b0 8091 0000 		lds r24,USB_ControlRequest
 1163 00b4 8132      		cpi r24,lo8(33)
 1164 00b6 01F0      		breq .+2
 1165 00b8 00C0      		rjmp .L89
 1166               	.LBB158:
 1167               	.LBB159:
 444:../../tmk_core/protocol/lufa/LUFA-git/LUFA/Drivers/USB/Class/Device/../../Core/AVR8/../AVR8/Endpoint_AVR8.h **** 			}
 1168               		.loc 2 444 0
 1169 00ba 8091 E800 		lds r24,232
 1170 00be 877F      		andi r24,lo8(-9)
 1171 00c0 8093 E800 		sts 232,r24
 1172               	.L99:
 1173               	.LBE159:
 1174               	.LBE158:
 1175               	.LBB160:
 1176               	.LBB161:
 419:../../tmk_core/protocol/lufa/LUFA-git/LUFA/Drivers/USB/Class/Device/../../Core/AVR8/../AVR8/Endpoint_AVR8.h **** 			}
 1177               		.loc 2 419 0
 1178 00c4 8091 E800 		lds r24,232
 1179               	.LBE161:
 1180               	.LBE160:
  72:../../tmk_core/protocol/lufa/LUFA-git/LUFA/Drivers/USB/Class/Device/CDCClassDevice.c **** 				{
 1181               		.loc 1 72 0
 1182 00c8 82FD      		sbrc r24,2
 1183 00ca 00C0      		rjmp .L106
  74:../../tmk_core/protocol/lufa/LUFA-git/LUFA/Drivers/USB/Class/Device/CDCClassDevice.c **** 					  return;
 1184               		.loc 1 74 0
 1185 00cc 8091 0000 		lds r24,USB_DeviceState
 1186 00d0 8111      		cpse r24,__zero_reg__
 1187 00d2 00C0      		rjmp .L99
 1188 00d4 00C0      		rjmp .L89
 1189               	.L106:
 1190               	.LBB162:
 1191               	.LBB163:
 674:../../tmk_core/protocol/lufa/LUFA-git/LUFA/Drivers/USB/Class/Device/../../Core/AVR8/../AVR8/Endpoint_AVR8.h **** 				Data.Bytes[1] = UEDATX;
 1192               		.loc 2 674 0
 1193 00d6 3091 F100 		lds r19,241
 675:../../tmk_core/protocol/lufa/LUFA-git/LUFA/Drivers/USB/Class/Device/../../Core/AVR8/../AVR8/Endpoint_AVR8.h **** 				Data.Bytes[2] = UEDATX;
 1194               		.loc 2 675 0
 1195 00da 2091 F100 		lds r18,241
 676:../../tmk_core/protocol/lufa/LUFA-git/LUFA/Drivers/USB/Class/Device/../../Core/AVR8/../AVR8/Endpoint_AVR8.h **** 				Data.Bytes[3] = UEDATX;
 1196               		.loc 2 676 0
 1197 00de 9091 F100 		lds r25,241
 677:../../tmk_core/protocol/lufa/LUFA-git/LUFA/Drivers/USB/Class/Device/../../Core/AVR8/../AVR8/Endpoint_AVR8.h **** 
 1198               		.loc 2 677 0
 1199 00e2 8091 F100 		lds r24,241
 1200               	.LBE163:
 1201               	.LBE162:
  78:../../tmk_core/protocol/lufa/LUFA-git/LUFA/Drivers/USB/Class/Device/CDCClassDevice.c **** 				CDCInterfaceInfo->State.LineEncoding.CharFormat  = Endpoint_Read_8();
 1202               		.loc 1 78 0
 1203 00e6 3C8B      		std Y+20,r19
 1204 00e8 2D8B      		std Y+21,r18
 1205 00ea 9E8B      		std Y+22,r25
 1206 00ec 8F8B      		std Y+23,r24
 1207               	.LBB164:
 1208               	.LBB165:
 542:../../tmk_core/protocol/lufa/LUFA-git/LUFA/Drivers/USB/Class/Device/../../Core/AVR8/../AVR8/Endpoint_AVR8.h **** 			}
 1209               		.loc 2 542 0
 1210 00ee 8091 F100 		lds r24,241
 1211               	.LBE165:
 1212               	.LBE164:
  79:../../tmk_core/protocol/lufa/LUFA-git/LUFA/Drivers/USB/Class/Device/CDCClassDevice.c **** 				CDCInterfaceInfo->State.LineEncoding.ParityType  = Endpoint_Read_8();
 1213               		.loc 1 79 0
 1214 00f2 888F      		std Y+24,r24
 1215               	.LBB166:
 1216               	.LBB167:
 542:../../tmk_core/protocol/lufa/LUFA-git/LUFA/Drivers/USB/Class/Device/../../Core/AVR8/../AVR8/Endpoint_AVR8.h **** 			}
 1217               		.loc 2 542 0
 1218 00f4 8091 F100 		lds r24,241
 1219               	.LBE167:
 1220               	.LBE166:
  80:../../tmk_core/protocol/lufa/LUFA-git/LUFA/Drivers/USB/Class/Device/CDCClassDevice.c **** 				CDCInterfaceInfo->State.LineEncoding.DataBits    = Endpoint_Read_8();
 1221               		.loc 1 80 0
 1222 00f8 898F      		std Y+25,r24
 1223               	.LBB168:
 1224               	.LBB169:
 542:../../tmk_core/protocol/lufa/LUFA-git/LUFA/Drivers/USB/Class/Device/../../Core/AVR8/../AVR8/Endpoint_AVR8.h **** 			}
 1225               		.loc 2 542 0
 1226 00fa 8091 F100 		lds r24,241
 1227               	.LBE169:
 1228               	.LBE168:
  81:../../tmk_core/protocol/lufa/LUFA-git/LUFA/Drivers/USB/Class/Device/CDCClassDevice.c **** 
 1229               		.loc 1 81 0
 1230 00fe 8A8F      		std Y+26,r24
 1231               	.LBB170:
 1232               	.LBB171:
 471:../../tmk_core/protocol/lufa/LUFA-git/LUFA/Drivers/USB/Class/Device/../../Core/AVR8/../AVR8/Endpoint_AVR8.h **** 				#else
 1233               		.loc 2 471 0
 1234 0100 8091 E800 		lds r24,232
 1235 0104 8B77      		andi r24,lo8(123)
 1236 0106 8093 E800 		sts 232,r24
 1237               	.LBE171:
 1238               	.LBE170:
  84:../../tmk_core/protocol/lufa/LUFA-git/LUFA/Drivers/USB/Class/Device/CDCClassDevice.c **** 
 1239               		.loc 1 84 0
 1240 010a 0E94 0000 		call Endpoint_ClearStatusStage
 1241               	.LVL91:
  86:../../tmk_core/protocol/lufa/LUFA-git/LUFA/Drivers/USB/Class/Device/CDCClassDevice.c **** 			}
 1242               		.loc 1 86 0
 1243 010e CE01      		movw r24,r28
 1244               	/* epilogue start */
 113:../../tmk_core/protocol/lufa/LUFA-git/LUFA/Drivers/USB/Class/Device/CDCClassDevice.c **** 
 1245               		.loc 1 113 0
 1246 0110 DF91      		pop r29
 1247 0112 CF91      		pop r28
 1248               	.LVL92:
  86:../../tmk_core/protocol/lufa/LUFA-git/LUFA/Drivers/USB/Class/Device/CDCClassDevice.c **** 			}
 1249               		.loc 1 86 0
 1250 0114 0C94 0000 		jmp EVENT_CDC_Device_LineEncodingChanged
 1251               	.LVL93:
 1252               	.L96:
  91:../../tmk_core/protocol/lufa/LUFA-git/LUFA/Drivers/USB/Class/Device/CDCClassDevice.c **** 			{
 1253               		.loc 1 91 0
 1254 0118 8091 0000 		lds r24,USB_ControlRequest
 1255 011c 8132      		cpi r24,lo8(33)
 1256 011e 01F4      		brne .L89
 1257               	.LBB172:
 1258               	.LBB173:
 444:../../tmk_core/protocol/lufa/LUFA-git/LUFA/Drivers/USB/Class/Device/../../Core/AVR8/../AVR8/Endpoint_AVR8.h **** 			}
 1259               		.loc 2 444 0
 1260 0120 8091 E800 		lds r24,232
 1261 0124 877F      		andi r24,lo8(-9)
 1262 0126 8093 E800 		sts 232,r24
 1263               	.LBE173:
 1264               	.LBE172:
  94:../../tmk_core/protocol/lufa/LUFA-git/LUFA/Drivers/USB/Class/Device/CDCClassDevice.c **** 
 1265               		.loc 1 94 0
 1266 012a 0E94 0000 		call Endpoint_ClearStatusStage
 1267               	.LVL94:
  96:../../tmk_core/protocol/lufa/LUFA-git/LUFA/Drivers/USB/Class/Device/CDCClassDevice.c **** 
 1268               		.loc 1 96 0
 1269 012e 8091 0000 		lds r24,USB_ControlRequest+2
 1270 0132 9091 0000 		lds r25,USB_ControlRequest+2+1
 1271 0136 998B      		std Y+17,r25
 1272 0138 888B      		std Y+16,r24
  98:../../tmk_core/protocol/lufa/LUFA-git/LUFA/Drivers/USB/Class/Device/CDCClassDevice.c **** 			}
 1273               		.loc 1 98 0
 1274 013a CE01      		movw r24,r28
 1275               	/* epilogue start */
 113:../../tmk_core/protocol/lufa/LUFA-git/LUFA/Drivers/USB/Class/Device/CDCClassDevice.c **** 
 1276               		.loc 1 113 0
 1277 013c DF91      		pop r29
 1278 013e CF91      		pop r28
 1279               	.LVL95:
  98:../../tmk_core/protocol/lufa/LUFA-git/LUFA/Drivers/USB/Class/Device/CDCClassDevice.c **** 			}
 1280               		.loc 1 98 0
 1281 0140 0C94 0000 		jmp EVENT_CDC_Device_ControLineStateChanged
 1282               	.LVL96:
 1283               	.L97:
 103:../../tmk_core/protocol/lufa/LUFA-git/LUFA/Drivers/USB/Class/Device/CDCClassDevice.c **** 			{
 1284               		.loc 1 103 0
 1285 0144 8091 0000 		lds r24,USB_ControlRequest
 1286 0148 8132      		cpi r24,lo8(33)
 1287 014a 01F4      		brne .L89
 1288               	.LBB174:
 1289               	.LBB175:
 444:../../tmk_core/protocol/lufa/LUFA-git/LUFA/Drivers/USB/Class/Device/../../Core/AVR8/../AVR8/Endpoint_AVR8.h **** 			}
 1290               		.loc 2 444 0
 1291 014c 8091 E800 		lds r24,232
 1292 0150 877F      		andi r24,lo8(-9)
 1293 0152 8093 E800 		sts 232,r24
 1294               	.LBE175:
 1295               	.LBE174:
 106:../../tmk_core/protocol/lufa/LUFA-git/LUFA/Drivers/USB/Class/Device/CDCClassDevice.c **** 
 1296               		.loc 1 106 0
 1297 0156 0E94 0000 		call Endpoint_ClearStatusStage
 1298               	.LVL97:
 108:../../tmk_core/protocol/lufa/LUFA-git/LUFA/Drivers/USB/Class/Device/CDCClassDevice.c **** 			}
 1299               		.loc 1 108 0
 1300 015a 6091 0000 		lds r22,USB_ControlRequest+2
 1301 015e CE01      		movw r24,r28
 1302               	/* epilogue start */
 113:../../tmk_core/protocol/lufa/LUFA-git/LUFA/Drivers/USB/Class/Device/CDCClassDevice.c **** 
 1303               		.loc 1 113 0
 1304 0160 DF91      		pop r29
 1305 0162 CF91      		pop r28
 1306               	.LVL98:
 108:../../tmk_core/protocol/lufa/LUFA-git/LUFA/Drivers/USB/Class/Device/CDCClassDevice.c **** 			}
 1307               		.loc 1 108 0
 1308 0164 0C94 0000 		jmp EVENT_CDC_Device_BreakSent
 1309               	.LVL99:
 1310               	.L89:
 1311               	/* epilogue start */
 113:../../tmk_core/protocol/lufa/LUFA-git/LUFA/Drivers/USB/Class/Device/CDCClassDevice.c **** 
 1312               		.loc 1 113 0
 1313 0168 DF91      		pop r29
 1314 016a CF91      		pop r28
 1315               	.LVL100:
 1316 016c 0895      		ret
 1317               		.cfi_endproc
 1318               	.LFE100:
 1320               		.text
 1321               	.Letext0:
 1322               		.file 3 "/usr/local/Cellar/avr-gcc/4.9.3/avr/include/stdint.h"
 1323               		.file 4 "../../tmk_core/protocol/lufa/LUFA-git/LUFA/Drivers/USB/Class/Device/../../Core/AVR8/../En
 1324               		.file 5 "../../tmk_core/protocol/lufa/LUFA-git/LUFA/Drivers/USB/Class/Device/../../Core/AVR8/../De
 1325               		.file 6 "../../tmk_core/protocol/lufa/LUFA-git/LUFA/Drivers/USB/Class/Device/../../Core/AVR8/../St
 1326               		.file 7 "../../tmk_core/protocol/lufa/LUFA-git/LUFA/Drivers/USB/Class/Device/../../Core/AVR8/../En
 1327               		.file 8 "/usr/local/Cellar/avr-gcc/4.9.3/avr/include/stdio.h"
 1328               		.file 9 "../../tmk_core/protocol/lufa/LUFA-git/LUFA/Drivers/USB/Class/Device/../../Class/Device/..
 1329               		.file 10 "../../tmk_core/protocol/lufa/LUFA-git/LUFA/Drivers/USB/Class/Device/CDCClassDevice.h"
 1330               		.file 11 "../../tmk_core/protocol/lufa/LUFA-git/LUFA/Drivers/USB/Class/Device/../../Core/USBTask.h
 1331               		.file 12 "../../tmk_core/protocol/lufa/LUFA-git/LUFA/Drivers/USB/Class/Device/../../Core/AVR8/../A