   1               		.file	"process_music.c"
   2               	__SP_H__ = 0x3e
   3               	__SP_L__ = 0x3d
   4               	__SREG__ = 0x3f
   5               	__tmp_reg__ = 0
   6               	__zero_reg__ = 1
   7               		.text
   8               	.Ltext0:
   9               		.cfi_sections	.debug_frame
  10               		.section	.text.is_music_on,"ax",@progbits
  11               	.global	is_music_on
  13               	is_music_on:
  14               	.LFB108:
  15               		.file 1 "../../quantum/process_keycode/process_music.c"
   1:../../quantum/process_keycode/process_music.c **** #include "process_music.h"
   2:../../quantum/process_keycode/process_music.c **** 
   3:../../quantum/process_keycode/process_music.c **** bool music_activated = false;
   4:../../quantum/process_keycode/process_music.c **** uint8_t starting_note = 0x0C;
   5:../../quantum/process_keycode/process_music.c **** int offset = 7;
   6:../../quantum/process_keycode/process_music.c **** 
   7:../../quantum/process_keycode/process_music.c **** // music sequencer
   8:../../quantum/process_keycode/process_music.c **** static bool music_sequence_recording = false;
   9:../../quantum/process_keycode/process_music.c **** static bool music_sequence_recorded = false;
  10:../../quantum/process_keycode/process_music.c **** static bool music_sequence_playing = false;
  11:../../quantum/process_keycode/process_music.c **** static float music_sequence[16] = {0};
  12:../../quantum/process_keycode/process_music.c **** static uint8_t music_sequence_count = 0;
  13:../../quantum/process_keycode/process_music.c **** static uint8_t music_sequence_position = 0;
  14:../../quantum/process_keycode/process_music.c **** 
  15:../../quantum/process_keycode/process_music.c **** static uint16_t music_sequence_timer = 0;
  16:../../quantum/process_keycode/process_music.c **** static uint16_t music_sequence_interval = 100;
  17:../../quantum/process_keycode/process_music.c **** 
  18:../../quantum/process_keycode/process_music.c **** bool process_music(uint16_t keycode, keyrecord_t *record) {
  19:../../quantum/process_keycode/process_music.c **** 
  20:../../quantum/process_keycode/process_music.c ****     if (keycode == AU_ON && record->event.pressed) {
  21:../../quantum/process_keycode/process_music.c ****       audio_on();
  22:../../quantum/process_keycode/process_music.c ****       return false;
  23:../../quantum/process_keycode/process_music.c ****     }
  24:../../quantum/process_keycode/process_music.c **** 
  25:../../quantum/process_keycode/process_music.c ****     if (keycode == AU_OFF && record->event.pressed) {
  26:../../quantum/process_keycode/process_music.c ****       audio_off();
  27:../../quantum/process_keycode/process_music.c ****       return false;
  28:../../quantum/process_keycode/process_music.c ****     }
  29:../../quantum/process_keycode/process_music.c **** 
  30:../../quantum/process_keycode/process_music.c ****     if (keycode == AU_TOG && record->event.pressed) {
  31:../../quantum/process_keycode/process_music.c ****         if (is_audio_on())
  32:../../quantum/process_keycode/process_music.c ****         {
  33:../../quantum/process_keycode/process_music.c ****             audio_off();
  34:../../quantum/process_keycode/process_music.c ****         }
  35:../../quantum/process_keycode/process_music.c ****         else
  36:../../quantum/process_keycode/process_music.c ****         {
  37:../../quantum/process_keycode/process_music.c ****             audio_on();
  38:../../quantum/process_keycode/process_music.c ****         }
  39:../../quantum/process_keycode/process_music.c ****       return false;
  40:../../quantum/process_keycode/process_music.c ****     }
  41:../../quantum/process_keycode/process_music.c **** 
  42:../../quantum/process_keycode/process_music.c ****     if (keycode == MU_ON && record->event.pressed) {
  43:../../quantum/process_keycode/process_music.c ****         music_on();
  44:../../quantum/process_keycode/process_music.c ****         return false;
  45:../../quantum/process_keycode/process_music.c ****     }
  46:../../quantum/process_keycode/process_music.c **** 
  47:../../quantum/process_keycode/process_music.c ****     if (keycode == MU_OFF && record->event.pressed) {
  48:../../quantum/process_keycode/process_music.c ****         music_off();
  49:../../quantum/process_keycode/process_music.c ****         return false;
  50:../../quantum/process_keycode/process_music.c ****     }
  51:../../quantum/process_keycode/process_music.c **** 
  52:../../quantum/process_keycode/process_music.c ****     if (keycode == MU_TOG && record->event.pressed) {
  53:../../quantum/process_keycode/process_music.c ****         if (music_activated)
  54:../../quantum/process_keycode/process_music.c ****         {
  55:../../quantum/process_keycode/process_music.c ****             music_off();
  56:../../quantum/process_keycode/process_music.c ****         }
  57:../../quantum/process_keycode/process_music.c ****         else
  58:../../quantum/process_keycode/process_music.c ****         {
  59:../../quantum/process_keycode/process_music.c ****             music_on();
  60:../../quantum/process_keycode/process_music.c ****         }
  61:../../quantum/process_keycode/process_music.c ****         return false;
  62:../../quantum/process_keycode/process_music.c ****     }
  63:../../quantum/process_keycode/process_music.c **** 
  64:../../quantum/process_keycode/process_music.c ****     if (keycode == MUV_IN && record->event.pressed) {
  65:../../quantum/process_keycode/process_music.c ****         voice_iterate();
  66:../../quantum/process_keycode/process_music.c ****         music_scale_user();
  67:../../quantum/process_keycode/process_music.c ****         return false;
  68:../../quantum/process_keycode/process_music.c ****     }
  69:../../quantum/process_keycode/process_music.c **** 
  70:../../quantum/process_keycode/process_music.c ****     if (keycode == MUV_DE && record->event.pressed) {
  71:../../quantum/process_keycode/process_music.c ****         voice_deiterate();
  72:../../quantum/process_keycode/process_music.c ****         music_scale_user();
  73:../../quantum/process_keycode/process_music.c ****         return false;
  74:../../quantum/process_keycode/process_music.c ****     }
  75:../../quantum/process_keycode/process_music.c **** 
  76:../../quantum/process_keycode/process_music.c ****     if (music_activated) {
  77:../../quantum/process_keycode/process_music.c **** 
  78:../../quantum/process_keycode/process_music.c ****       if (keycode == KC_LCTL && record->event.pressed) { // Start recording
  79:../../quantum/process_keycode/process_music.c ****         stop_all_notes();
  80:../../quantum/process_keycode/process_music.c ****         music_sequence_recording = true;
  81:../../quantum/process_keycode/process_music.c ****         music_sequence_recorded = false;
  82:../../quantum/process_keycode/process_music.c ****         music_sequence_playing = false;
  83:../../quantum/process_keycode/process_music.c ****         music_sequence_count = 0;
  84:../../quantum/process_keycode/process_music.c ****         return false;
  85:../../quantum/process_keycode/process_music.c ****       }
  86:../../quantum/process_keycode/process_music.c **** 
  87:../../quantum/process_keycode/process_music.c ****       if (keycode == KC_LALT && record->event.pressed) { // Stop recording/playing
  88:../../quantum/process_keycode/process_music.c ****         stop_all_notes();
  89:../../quantum/process_keycode/process_music.c ****         if (music_sequence_recording) { // was recording
  90:../../quantum/process_keycode/process_music.c ****           music_sequence_recorded = true;
  91:../../quantum/process_keycode/process_music.c ****         }
  92:../../quantum/process_keycode/process_music.c ****         music_sequence_recording = false;
  93:../../quantum/process_keycode/process_music.c ****         music_sequence_playing = false;
  94:../../quantum/process_keycode/process_music.c ****         return false;
  95:../../quantum/process_keycode/process_music.c ****       }
  96:../../quantum/process_keycode/process_music.c **** 
  97:../../quantum/process_keycode/process_music.c ****       if (keycode == KC_LGUI && record->event.pressed && music_sequence_recorded) { // Start playin
  98:../../quantum/process_keycode/process_music.c ****         stop_all_notes();
  99:../../quantum/process_keycode/process_music.c ****         music_sequence_recording = false;
 100:../../quantum/process_keycode/process_music.c ****         music_sequence_playing = true;
 101:../../quantum/process_keycode/process_music.c ****         music_sequence_position = 0;
 102:../../quantum/process_keycode/process_music.c ****         music_sequence_timer = 0;
 103:../../quantum/process_keycode/process_music.c ****         return false;
 104:../../quantum/process_keycode/process_music.c ****       }
 105:../../quantum/process_keycode/process_music.c **** 
 106:../../quantum/process_keycode/process_music.c ****       if (keycode == KC_UP) {
 107:../../quantum/process_keycode/process_music.c ****         if (record->event.pressed)
 108:../../quantum/process_keycode/process_music.c ****             music_sequence_interval-=10;
 109:../../quantum/process_keycode/process_music.c ****         return false;
 110:../../quantum/process_keycode/process_music.c ****       }
 111:../../quantum/process_keycode/process_music.c **** 
 112:../../quantum/process_keycode/process_music.c ****       if (keycode == KC_DOWN) {
 113:../../quantum/process_keycode/process_music.c ****         if (record->event.pressed)
 114:../../quantum/process_keycode/process_music.c ****             music_sequence_interval+=10;
 115:../../quantum/process_keycode/process_music.c ****         return false;
 116:../../quantum/process_keycode/process_music.c ****       }
 117:../../quantum/process_keycode/process_music.c **** 
 118:../../quantum/process_keycode/process_music.c ****       float freq = ((float)220.0)*pow(2.0, -5.0)*pow(2.0,(starting_note + SCALE[record->event.key.c
 119:../../quantum/process_keycode/process_music.c ****       if (record->event.pressed) {
 120:../../quantum/process_keycode/process_music.c ****         play_note(freq, 0xF);
 121:../../quantum/process_keycode/process_music.c ****         if (music_sequence_recording) {
 122:../../quantum/process_keycode/process_music.c ****           music_sequence[music_sequence_count] = freq;
 123:../../quantum/process_keycode/process_music.c ****           music_sequence_count++;
 124:../../quantum/process_keycode/process_music.c ****         }
 125:../../quantum/process_keycode/process_music.c ****       } else {
 126:../../quantum/process_keycode/process_music.c ****         stop_note(freq);
 127:../../quantum/process_keycode/process_music.c ****       }
 128:../../quantum/process_keycode/process_music.c **** 
 129:../../quantum/process_keycode/process_music.c ****       if (keycode < 0xFF) // ignores all normal keycodes, but lets RAISE, LOWER, etc through
 130:../../quantum/process_keycode/process_music.c ****         return false;
 131:../../quantum/process_keycode/process_music.c ****     }
 132:../../quantum/process_keycode/process_music.c ****   return true;
 133:../../quantum/process_keycode/process_music.c **** }
 134:../../quantum/process_keycode/process_music.c **** 
 135:../../quantum/process_keycode/process_music.c **** bool is_music_on(void) {
  16               		.loc 1 135 0
  17               		.cfi_startproc
  18               	/* prologue: function */
  19               	/* frame size = 0 */
  20               	/* stack size = 0 */
  21               	.L__stack_usage = 0
 136:../../quantum/process_keycode/process_music.c ****     return (music_activated != 0);
 137:../../quantum/process_keycode/process_music.c **** }
  22               		.loc 1 137 0
  23 0000 8091 0000 		lds r24,music_activated
  24 0004 0895      		ret
  25               		.cfi_endproc
  26               	.LFE108:
  28               		.section	.text.music_off,"ax",@progbits
  29               	.global	music_off
  31               	music_off:
  32               	.LFB111:
 138:../../quantum/process_keycode/process_music.c **** 
 139:../../quantum/process_keycode/process_music.c **** void music_toggle(void) {
 140:../../quantum/process_keycode/process_music.c ****     if (!music_activated) {
 141:../../quantum/process_keycode/process_music.c ****         music_on();
 142:../../quantum/process_keycode/process_music.c ****     } else {
 143:../../quantum/process_keycode/process_music.c ****         music_off();
 144:../../quantum/process_keycode/process_music.c ****     }
 145:../../quantum/process_keycode/process_music.c **** }
 146:../../quantum/process_keycode/process_music.c **** 
 147:../../quantum/process_keycode/process_music.c **** void music_on(void) {
 148:../../quantum/process_keycode/process_music.c ****     music_activated = 1;
 149:../../quantum/process_keycode/process_music.c ****     music_on_user();
 150:../../quantum/process_keycode/process_music.c **** }
 151:../../quantum/process_keycode/process_music.c **** 
 152:../../quantum/process_keycode/process_music.c **** void music_off(void) {
  33               		.loc 1 152 0
  34               		.cfi_startproc
  35               	/* prologue: function */
  36               	/* frame size = 0 */
  37               	/* stack size = 0 */
  38               	.L__stack_usage = 0
 153:../../quantum/process_keycode/process_music.c ****     music_activated = 0;
  39               		.loc 1 153 0
  40 0000 1092 0000 		sts music_activated,__zero_reg__
 154:../../quantum/process_keycode/process_music.c ****     stop_all_notes();
  41               		.loc 1 154 0
  42 0004 0C94 0000 		jmp stop_all_notes
  43               	.LVL0:
  44               		.cfi_endproc
  45               	.LFE111:
  47               		.section	.text.music_on_user,"ax",@progbits
  48               		.weak	music_on_user
  50               	music_on_user:
  51               	.LFB112:
 155:../../quantum/process_keycode/process_music.c **** }
 156:../../quantum/process_keycode/process_music.c **** 
 157:../../quantum/process_keycode/process_music.c **** 
 158:../../quantum/process_keycode/process_music.c **** __attribute__ ((weak))
 159:../../quantum/process_keycode/process_music.c **** void music_on_user() {}
  52               		.loc 1 159 0
  53               		.cfi_startproc
  54               	/* prologue: function */
  55               	/* frame size = 0 */
  56               	/* stack size = 0 */
  57               	.L__stack_usage = 0
  58 0000 0895      		ret
  59               		.cfi_endproc
  60               	.LFE112:
  62               		.section	.text.music_on,"ax",@progbits
  63               	.global	music_on
  65               	music_on:
  66               	.LFB110:
 147:../../quantum/process_keycode/process_music.c ****     music_activated = 1;
  67               		.loc 1 147 0
  68               		.cfi_startproc
  69               	/* prologue: function */
  70               	/* frame size = 0 */
  71               	/* stack size = 0 */
  72               	.L__stack_usage = 0
 148:../../quantum/process_keycode/process_music.c ****     music_on_user();
  73               		.loc 1 148 0
  74 0000 81E0      		ldi r24,lo8(1)
  75 0002 8093 0000 		sts music_activated,r24
 149:../../quantum/process_keycode/process_music.c **** }
  76               		.loc 1 149 0
  77 0006 0C94 0000 		jmp music_on_user
  78               	.LVL1:
  79               		.cfi_endproc
  80               	.LFE110:
  82               		.section	.text.music_toggle,"ax",@progbits
  83               	.global	music_toggle
  85               	music_toggle:
  86               	.LFB109:
 139:../../quantum/process_keycode/process_music.c ****     if (!music_activated) {
  87               		.loc 1 139 0
  88               		.cfi_startproc
  89               	/* prologue: function */
  90               	/* frame size = 0 */
  91               	/* stack size = 0 */
  92               	.L__stack_usage = 0
 140:../../quantum/process_keycode/process_music.c ****         music_on();
  93               		.loc 1 140 0
  94 0000 8091 0000 		lds r24,music_activated
  95 0004 8111      		cpse r24,__zero_reg__
  96 0006 00C0      		rjmp .L6
 141:../../quantum/process_keycode/process_music.c ****     } else {
  97               		.loc 1 141 0
  98 0008 0C94 0000 		jmp music_on
  99               	.LVL2:
 100               	.L6:
 143:../../quantum/process_keycode/process_music.c ****     }
 101               		.loc 1 143 0
 102 000c 0C94 0000 		jmp music_off
 103               	.LVL3:
 104               		.cfi_endproc
 105               	.LFE109:
 107               		.section	.text.audio_on_user,"ax",@progbits
 108               		.weak	audio_on_user
 110               	audio_on_user:
 111               	.LFB113:
 160:../../quantum/process_keycode/process_music.c **** 
 161:../../quantum/process_keycode/process_music.c **** __attribute__ ((weak))
 162:../../quantum/process_keycode/process_music.c **** void audio_on_user() {}
 112               		.loc 1 162 0
 113               		.cfi_startproc
 114               	/* prologue: function */
 115               	/* frame size = 0 */
 116               	/* stack size = 0 */
 117               	.L__stack_usage = 0
 118 0000 0895      		ret
 119               		.cfi_endproc
 120               	.LFE113:
 122               		.section	.text.music_scale_user,"ax",@progbits
 123               		.weak	music_scale_user
 125               	music_scale_user:
 126               	.LFB114:
 163:../../quantum/process_keycode/process_music.c **** 
 164:../../quantum/process_keycode/process_music.c **** __attribute__ ((weak))
 165:../../quantum/process_keycode/process_music.c **** void music_scale_user() {}
 127               		.loc 1 165 0
 128               		.cfi_startproc
 129               	/* prologue: function */
 130               	/* frame size = 0 */
 131               	/* stack size = 0 */
 132               	.L__stack_usage = 0
 133 0000 0895      		ret
 134               		.cfi_endproc
 135               	.LFE114:
 137               	.global	__floatsisf
 138               	.global	__divsf3
 139               	.global	__addsf3
 140               	.global	__mulsf3
 141               		.section	.rodata
 142               	.LC0:
 143 0000 00        		.byte	0
 144 0001 02        		.byte	2
 145 0002 04        		.byte	4
 146 0003 05        		.byte	5
 147 0004 07        		.byte	7
 148 0005 09        		.byte	9
 149 0006 0B        		.byte	11
 150 0007 0C        		.byte	12
 151 0008 0E        		.byte	14
 152 0009 10        		.byte	16
 153 000a 11        		.byte	17
 154 000b 13        		.byte	19
 155 000c 15        		.byte	21
 156 000d 17        		.byte	23
 157 000e 18        		.byte	24
 158 000f 1A        		.byte	26
 159 0010 1C        		.byte	28
 160 0011 1D        		.byte	29
 161 0012 1F        		.byte	31
 162 0013 21        		.byte	33
 163 0014 23        		.byte	35
 164 0015 24        		.byte	36
 165 0016 26        		.byte	38
 166 0017 28        		.byte	40
 167 0018 29        		.byte	41
 168 0019 2B        		.byte	43
 169 001a 2D        		.byte	45
 170 001b 2F        		.byte	47
 171 001c 30        		.byte	48
 172 001d 32        		.byte	50
 173 001e 34        		.byte	52
 174 001f 35        		.byte	53
 175 0020 37        		.byte	55
 176 0021 39        		.byte	57
 177 0022 3B        		.byte	59
 178               		.section	.text.process_music,"ax",@progbits
 179               	.global	process_music
 181               	process_music:
 182               	.LFB107:
  18:../../quantum/process_keycode/process_music.c **** 
 183               		.loc 1 18 0
 184               		.cfi_startproc
 185               	.LVL4:
  18:../../quantum/process_keycode/process_music.c **** 
 186               		.loc 1 18 0
 187 0000 8F92      		push r8
 188               	.LCFI0:
 189               		.cfi_def_cfa_offset 3
 190               		.cfi_offset 8, -2
 191 0002 9F92      		push r9
 192               	.LCFI1:
 193               		.cfi_def_cfa_offset 4
 194               		.cfi_offset 9, -3
 195 0004 AF92      		push r10
 196               	.LCFI2:
 197               		.cfi_def_cfa_offset 5
 198               		.cfi_offset 10, -4
 199 0006 BF92      		push r11
 200               	.LCFI3:
 201               		.cfi_def_cfa_offset 6
 202               		.cfi_offset 11, -5
 203 0008 EF92      		push r14
 204               	.LCFI4:
 205               		.cfi_def_cfa_offset 7
 206               		.cfi_offset 14, -6
 207 000a FF92      		push r15
 208               	.LCFI5:
 209               		.cfi_def_cfa_offset 8
 210               		.cfi_offset 15, -7
 211 000c 0F93      		push r16
 212               	.LCFI6:
 213               		.cfi_def_cfa_offset 9
 214               		.cfi_offset 16, -8
 215 000e 1F93      		push r17
 216               	.LCFI7:
 217               		.cfi_def_cfa_offset 10
 218               		.cfi_offset 17, -9
 219 0010 CF93      		push r28
 220               	.LCFI8:
 221               		.cfi_def_cfa_offset 11
 222               		.cfi_offset 28, -10
 223 0012 DF93      		push r29
 224               	.LCFI9:
 225               		.cfi_def_cfa_offset 12
 226               		.cfi_offset 29, -11
 227 0014 CDB7      		in r28,__SP_L__
 228 0016 DEB7      		in r29,__SP_H__
 229               	.LCFI10:
 230               		.cfi_def_cfa_register 28
 231 0018 A397      		sbiw r28,35
 232               	.LCFI11:
 233               		.cfi_def_cfa_offset 47
 234 001a 0FB6      		in __tmp_reg__,__SREG__
 235 001c F894      		cli
 236 001e DEBF      		out __SP_H__,r29
 237 0020 0FBE      		out __SREG__,__tmp_reg__
 238 0022 CDBF      		out __SP_L__,r28
 239               	/* prologue: function */
 240               	/* frame size = 35 */
 241               	/* stack size = 45 */
 242               	.L__stack_usage = 45
 243 0024 7C01      		movw r14,r24
 244 0026 8B01      		movw r16,r22
  20:../../quantum/process_keycode/process_music.c ****       audio_on();
 245               		.loc 1 20 0
 246 0028 8531      		cpi r24,21
 247 002a 20E7      		ldi r18,112
 248 002c 9207      		cpc r25,r18
 249 002e 01F4      		brne .L11
  20:../../quantum/process_keycode/process_music.c ****       audio_on();
 250               		.loc 1 20 0 is_stmt 0 discriminator 1
 251 0030 FB01      		movw r30,r22
 252 0032 8281      		ldd r24,Z+2
 253               	.LVL5:
 254 0034 8823      		tst r24
 255 0036 01F4      		brne .+2
 256 0038 00C0      		rjmp .L12
 257               	.LVL6:
 258               	.L17:
  21:../../quantum/process_keycode/process_music.c ****       return false;
 259               		.loc 1 21 0 is_stmt 1
 260 003a 0E94 0000 		call audio_on
 261               	.LVL7:
 262 003e 00C0      		rjmp .L82
 263               	.L11:
  25:../../quantum/process_keycode/process_music.c ****       audio_off();
 264               		.loc 1 25 0
 265 0040 8631      		cpi r24,22
 266 0042 F0E7      		ldi r31,112
 267 0044 9F07      		cpc r25,r31
 268 0046 01F4      		brne .L14
  25:../../quantum/process_keycode/process_music.c ****       audio_off();
 269               		.loc 1 25 0 is_stmt 0 discriminator 1
 270 0048 FB01      		movw r30,r22
 271 004a 8281      		ldd r24,Z+2
 272 004c 8823      		tst r24
 273 004e 01F4      		brne .+2
 274 0050 00C0      		rjmp .L12
 275               	.L16:
  26:../../quantum/process_keycode/process_music.c ****       return false;
 276               		.loc 1 26 0 is_stmt 1
 277 0052 0E94 0000 		call audio_off
 278               	.LVL8:
 279               	.L82:
  27:../../quantum/process_keycode/process_music.c ****     }
 280               		.loc 1 27 0
 281 0056 80E0      		ldi r24,0
 282 0058 00C0      		rjmp .L13
 283               	.L14:
  30:../../quantum/process_keycode/process_music.c ****         if (is_audio_on())
 284               		.loc 1 30 0
 285 005a 8731      		cpi r24,23
 286 005c F0E7      		ldi r31,112
 287 005e 9F07      		cpc r25,r31
 288 0060 01F4      		brne .L15
  30:../../quantum/process_keycode/process_music.c ****         if (is_audio_on())
 289               		.loc 1 30 0 is_stmt 0 discriminator 1
 290 0062 FB01      		movw r30,r22
 291 0064 8281      		ldd r24,Z+2
 292 0066 8823      		tst r24
 293 0068 01F4      		brne .+2
 294 006a 00C0      		rjmp .L12
  31:../../quantum/process_keycode/process_music.c ****         {
 295               		.loc 1 31 0 is_stmt 1
 296 006c 0E94 0000 		call is_audio_on
 297               	.LVL9:
 298 0070 8111      		cpse r24,__zero_reg__
 299 0072 00C0      		rjmp .L16
 300 0074 00C0      		rjmp .L17
 301               	.L15:
  42:../../quantum/process_keycode/process_music.c ****         music_on();
 302               		.loc 1 42 0
 303 0076 8831      		cpi r24,24
 304 0078 F0E7      		ldi r31,112
 305 007a 9F07      		cpc r25,r31
 306 007c 01F4      		brne .L18
  42:../../quantum/process_keycode/process_music.c ****         music_on();
 307               		.loc 1 42 0 is_stmt 0 discriminator 1
 308 007e FB01      		movw r30,r22
 309 0080 8281      		ldd r24,Z+2
 310 0082 8823      		tst r24
 311 0084 01F0      		breq .L12
 312               	.L22:
  43:../../quantum/process_keycode/process_music.c ****         return false;
 313               		.loc 1 43 0 is_stmt 1
 314 0086 0E94 0000 		call music_on
 315               	.LVL10:
 316 008a 00C0      		rjmp .L82
 317               	.L18:
  47:../../quantum/process_keycode/process_music.c ****         music_off();
 318               		.loc 1 47 0
 319 008c 8931      		cpi r24,25
 320 008e F0E7      		ldi r31,112
 321 0090 9F07      		cpc r25,r31
 322 0092 01F4      		brne .L19
  47:../../quantum/process_keycode/process_music.c ****         music_off();
 323               		.loc 1 47 0 is_stmt 0 discriminator 1
 324 0094 FB01      		movw r30,r22
 325 0096 8281      		ldd r24,Z+2
 326 0098 8823      		tst r24
 327 009a 01F0      		breq .L12
 328               	.L21:
  48:../../quantum/process_keycode/process_music.c ****         return false;
 329               		.loc 1 48 0 is_stmt 1
 330 009c 0E94 0000 		call music_off
 331               	.LVL11:
 332 00a0 00C0      		rjmp .L82
 333               	.L19:
  52:../../quantum/process_keycode/process_music.c ****         if (music_activated)
 334               		.loc 1 52 0
 335 00a2 8A31      		cpi r24,26
 336 00a4 F0E7      		ldi r31,112
 337 00a6 9F07      		cpc r25,r31
 338 00a8 01F4      		brne .L20
  52:../../quantum/process_keycode/process_music.c ****         if (music_activated)
 339               		.loc 1 52 0 is_stmt 0 discriminator 1
 340 00aa FB01      		movw r30,r22
 341 00ac 8281      		ldd r24,Z+2
 342 00ae 8823      		tst r24
 343 00b0 01F0      		breq .L12
  53:../../quantum/process_keycode/process_music.c ****         {
 344               		.loc 1 53 0 is_stmt 1
 345 00b2 8091 0000 		lds r24,music_activated
 346 00b6 8111      		cpse r24,__zero_reg__
 347 00b8 00C0      		rjmp .L21
 348 00ba 00C0      		rjmp .L22
 349               	.L20:
  64:../../quantum/process_keycode/process_music.c ****         voice_iterate();
 350               		.loc 1 64 0
 351 00bc 8B31      		cpi r24,27
 352 00be F0E7      		ldi r31,112
 353 00c0 9F07      		cpc r25,r31
 354 00c2 01F4      		brne .L23
  64:../../quantum/process_keycode/process_music.c ****         voice_iterate();
 355               		.loc 1 64 0 is_stmt 0 discriminator 1
 356 00c4 FB01      		movw r30,r22
 357 00c6 8281      		ldd r24,Z+2
 358 00c8 8823      		tst r24
 359 00ca 01F0      		breq .L12
  65:../../quantum/process_keycode/process_music.c ****         music_scale_user();
 360               		.loc 1 65 0 is_stmt 1
 361 00cc 0E94 0000 		call voice_iterate
 362               	.LVL12:
 363 00d0 00C0      		rjmp .L84
 364               	.L23:
  70:../../quantum/process_keycode/process_music.c ****         voice_deiterate();
 365               		.loc 1 70 0
 366 00d2 8C31      		cpi r24,28
 367 00d4 9047      		sbci r25,112
 368 00d6 01F4      		brne .L12
  70:../../quantum/process_keycode/process_music.c ****         voice_deiterate();
 369               		.loc 1 70 0 is_stmt 0 discriminator 1
 370 00d8 FB01      		movw r30,r22
 371 00da 8281      		ldd r24,Z+2
 372 00dc 8823      		tst r24
 373 00de 01F0      		breq .L12
  71:../../quantum/process_keycode/process_music.c ****         music_scale_user();
 374               		.loc 1 71 0 is_stmt 1
 375 00e0 0E94 0000 		call voice_deiterate
 376               	.LVL13:
 377               	.L84:
  72:../../quantum/process_keycode/process_music.c ****         return false;
 378               		.loc 1 72 0
 379 00e4 0E94 0000 		call music_scale_user
 380               	.LVL14:
 381 00e8 00C0      		rjmp .L82
 382               	.L12:
  76:../../quantum/process_keycode/process_music.c **** 
 383               		.loc 1 76 0
 384 00ea 8091 0000 		lds r24,music_activated
 385 00ee 8823      		tst r24
 386 00f0 01F4      		brne .+2
 387 00f2 00C0      		rjmp .L33
 388               	.LBB2:
  78:../../quantum/process_keycode/process_music.c ****         stop_all_notes();
 389               		.loc 1 78 0
 390 00f4 F0EE      		ldi r31,-32
 391 00f6 EF16      		cp r14,r31
 392 00f8 F104      		cpc r15,__zero_reg__
 393 00fa 01F4      		brne .L24
  78:../../quantum/process_keycode/process_music.c ****         stop_all_notes();
 394               		.loc 1 78 0 is_stmt 0 discriminator 1
 395 00fc F801      		movw r30,r16
 396 00fe 8281      		ldd r24,Z+2
 397 0100 8823      		tst r24
 398 0102 01F4      		brne .+2
 399 0104 00C0      		rjmp .L25
  79:../../quantum/process_keycode/process_music.c ****         music_sequence_recording = true;
 400               		.loc 1 79 0 is_stmt 1
 401 0106 0E94 0000 		call stop_all_notes
 402               	.LVL15:
  80:../../quantum/process_keycode/process_music.c ****         music_sequence_recorded = false;
 403               		.loc 1 80 0
 404 010a 81E0      		ldi r24,lo8(1)
 405 010c 8093 0000 		sts music_sequence_recording,r24
  81:../../quantum/process_keycode/process_music.c ****         music_sequence_playing = false;
 406               		.loc 1 81 0
 407 0110 1092 0000 		sts music_sequence_recorded,__zero_reg__
  82:../../quantum/process_keycode/process_music.c ****         music_sequence_count = 0;
 408               		.loc 1 82 0
 409 0114 1092 0000 		sts music_sequence_playing,__zero_reg__
  83:../../quantum/process_keycode/process_music.c ****         return false;
 410               		.loc 1 83 0
 411 0118 1092 0000 		sts music_sequence_count,__zero_reg__
 412 011c 00C0      		rjmp .L82
 413               	.L24:
  87:../../quantum/process_keycode/process_music.c ****         stop_all_notes();
 414               		.loc 1 87 0
 415 011e F2EE      		ldi r31,-30
 416 0120 EF16      		cp r14,r31
 417 0122 F104      		cpc r15,__zero_reg__
 418 0124 01F4      		brne .L26
  87:../../quantum/process_keycode/process_music.c ****         stop_all_notes();
 419               		.loc 1 87 0 is_stmt 0 discriminator 1
 420 0126 F801      		movw r30,r16
 421 0128 8281      		ldd r24,Z+2
 422 012a 8823      		tst r24
 423 012c 01F4      		brne .+2
 424 012e 00C0      		rjmp .L25
  88:../../quantum/process_keycode/process_music.c ****         if (music_sequence_recording) { // was recording
 425               		.loc 1 88 0 is_stmt 1
 426 0130 0E94 0000 		call stop_all_notes
 427               	.LVL16:
  89:../../quantum/process_keycode/process_music.c ****           music_sequence_recorded = true;
 428               		.loc 1 89 0
 429 0134 8091 0000 		lds r24,music_sequence_recording
 430 0138 8823      		tst r24
 431 013a 01F0      		breq .L27
  90:../../quantum/process_keycode/process_music.c ****         }
 432               		.loc 1 90 0
 433 013c 81E0      		ldi r24,lo8(1)
 434 013e 8093 0000 		sts music_sequence_recorded,r24
 435               	.L27:
  92:../../quantum/process_keycode/process_music.c ****         music_sequence_playing = false;
 436               		.loc 1 92 0
 437 0142 1092 0000 		sts music_sequence_recording,__zero_reg__
  93:../../quantum/process_keycode/process_music.c ****         return false;
 438               		.loc 1 93 0
 439 0146 1092 0000 		sts music_sequence_playing,__zero_reg__
 440 014a 00C0      		rjmp .L82
 441               	.L26:
  97:../../quantum/process_keycode/process_music.c ****         stop_all_notes();
 442               		.loc 1 97 0
 443 014c F3EE      		ldi r31,-29
 444 014e EF16      		cp r14,r31
 445 0150 F104      		cpc r15,__zero_reg__
 446 0152 01F4      		brne .L28
  97:../../quantum/process_keycode/process_music.c ****         stop_all_notes();
 447               		.loc 1 97 0 is_stmt 0 discriminator 1
 448 0154 F801      		movw r30,r16
 449 0156 8281      		ldd r24,Z+2
 450 0158 8823      		tst r24
 451 015a 01F0      		breq .L25
  97:../../quantum/process_keycode/process_music.c ****         stop_all_notes();
 452               		.loc 1 97 0 discriminator 2
 453 015c 8091 0000 		lds r24,music_sequence_recorded
 454 0160 8823      		tst r24
 455 0162 01F0      		breq .L25
  98:../../quantum/process_keycode/process_music.c ****         music_sequence_recording = false;
 456               		.loc 1 98 0 is_stmt 1
 457 0164 0E94 0000 		call stop_all_notes
 458               	.LVL17:
  99:../../quantum/process_keycode/process_music.c ****         music_sequence_playing = true;
 459               		.loc 1 99 0
 460 0168 1092 0000 		sts music_sequence_recording,__zero_reg__
 100:../../quantum/process_keycode/process_music.c ****         music_sequence_position = 0;
 461               		.loc 1 100 0
 462 016c 81E0      		ldi r24,lo8(1)
 463 016e 8093 0000 		sts music_sequence_playing,r24
 101:../../quantum/process_keycode/process_music.c ****         music_sequence_timer = 0;
 464               		.loc 1 101 0
 465 0172 1092 0000 		sts music_sequence_position,__zero_reg__
 102:../../quantum/process_keycode/process_music.c ****         return false;
 466               		.loc 1 102 0
 467 0176 1092 0000 		sts music_sequence_timer+1,__zero_reg__
 468 017a 1092 0000 		sts music_sequence_timer,__zero_reg__
 469 017e 00C0      		rjmp .L82
 470               	.L28:
 106:../../quantum/process_keycode/process_music.c ****         if (record->event.pressed)
 471               		.loc 1 106 0
 472 0180 F2E5      		ldi r31,82
 473 0182 EF16      		cp r14,r31
 474 0184 F104      		cpc r15,__zero_reg__
 475 0186 01F4      		brne .L29
 107:../../quantum/process_keycode/process_music.c ****             music_sequence_interval-=10;
 476               		.loc 1 107 0
 477 0188 F801      		movw r30,r16
 478 018a 8281      		ldd r24,Z+2
 479 018c 8823      		tst r24
 480 018e 01F4      		brne .+2
 481 0190 00C0      		rjmp .L13
 108:../../quantum/process_keycode/process_music.c ****         return false;
 482               		.loc 1 108 0
 483 0192 8091 0000 		lds r24,music_sequence_interval
 484 0196 9091 0000 		lds r25,music_sequence_interval+1
 485 019a 0A97      		sbiw r24,10
 486 019c 00C0      		rjmp .L83
 487               	.L29:
 112:../../quantum/process_keycode/process_music.c ****         if (record->event.pressed)
 488               		.loc 1 112 0
 489 019e F1E5      		ldi r31,81
 490 01a0 EF16      		cp r14,r31
 491 01a2 F104      		cpc r15,__zero_reg__
 492 01a4 01F4      		brne .L25
 113:../../quantum/process_keycode/process_music.c ****             music_sequence_interval+=10;
 493               		.loc 1 113 0
 494 01a6 F801      		movw r30,r16
 495 01a8 8281      		ldd r24,Z+2
 496 01aa 8823      		tst r24
 497 01ac 01F4      		brne .+2
 498 01ae 00C0      		rjmp .L13
 114:../../quantum/process_keycode/process_music.c ****         return false;
 499               		.loc 1 114 0
 500 01b0 8091 0000 		lds r24,music_sequence_interval
 501 01b4 9091 0000 		lds r25,music_sequence_interval+1
 502 01b8 0A96      		adiw r24,10
 503               	.L83:
 504 01ba 9093 0000 		sts music_sequence_interval+1,r25
 505 01be 8093 0000 		sts music_sequence_interval,r24
 506 01c2 00C0      		rjmp .L82
 507               	.L25:
 118:../../quantum/process_keycode/process_music.c ****       if (record->event.pressed) {
 508               		.loc 1 118 0
 509 01c4 4091 0000 		lds r20,starting_note
 510 01c8 83E2      		ldi r24,lo8(35)
 511 01ca E0E0      		ldi r30,lo8(.LC0)
 512 01cc F0E0      		ldi r31,hi8(.LC0)
 513 01ce DE01      		movw r26,r28
 514 01d0 1196      		adiw r26,1
 515               		0:
 516 01d2 0190      		ld r0,Z+
 517 01d4 0D92      		st X+,r0
 518 01d6 8A95      		dec r24
 519 01d8 01F4      		brne 0b
 520 01da F801      		movw r30,r16
 521 01dc 8081      		ld r24,Z
 522 01de 21E0      		ldi r18,lo8(1)
 523 01e0 30E0      		ldi r19,0
 524 01e2 2C0F      		add r18,r28
 525 01e4 3D1F      		adc r19,r29
 526 01e6 280F      		add r18,r24
 527 01e8 311D      		adc r19,__zero_reg__
 528 01ea C901      		movw r24,r18
 529 01ec 2091 0000 		lds r18,offset
 530 01f0 3091 0000 		lds r19,offset+1
 531 01f4 FC01      		movw r30,r24
 532 01f6 E20F      		add r30,r18
 533 01f8 F31F      		adc r31,r19
 534 01fa 6081      		ld r22,Z
 535 01fc 7727      		clr r23
 536 01fe 67FD      		sbrc r22,7
 537 0200 7095      		com r23
 538 0202 640F      		add r22,r20
 539 0204 711D      		adc r23,__zero_reg__
 540 0206 8827      		clr r24
 541 0208 77FD      		sbrc r23,7
 542 020a 8095      		com r24
 543 020c 982F      		mov r25,r24
 544 020e 0E94 0000 		call __floatsisf
 545               	.LVL18:
 546 0212 20E0      		ldi r18,0
 547 0214 30E0      		ldi r19,0
 548 0216 40E4      		ldi r20,lo8(64)
 549 0218 51E4      		ldi r21,lo8(65)
 550 021a 0E94 0000 		call __divsf3
 551               	.LVL19:
 552 021e 4B01      		movw r8,r22
 553 0220 5C01      		movw r10,r24
 554 0222 F801      		movw r30,r16
 555 0224 2181      		ldd r18,Z+1
 556 0226 85E0      		ldi r24,lo8(5)
 557 0228 90E0      		ldi r25,0
 558 022a 821B      		sub r24,r18
 559 022c 9109      		sbc r25,__zero_reg__
 560 022e BC01      		movw r22,r24
 561 0230 8827      		clr r24
 562 0232 77FD      		sbrc r23,7
 563 0234 8095      		com r24
 564 0236 982F      		mov r25,r24
 565 0238 0E94 0000 		call __floatsisf
 566               	.LVL20:
 567 023c 9B01      		movw r18,r22
 568 023e AC01      		movw r20,r24
 569 0240 C501      		movw r24,r10
 570 0242 B401      		movw r22,r8
 571 0244 0E94 0000 		call __addsf3
 572               	.LVL21:
 573 0248 9B01      		movw r18,r22
 574 024a AC01      		movw r20,r24
 575 024c 60E0      		ldi r22,0
 576 024e 70E0      		ldi r23,0
 577 0250 80E0      		ldi r24,0
 578 0252 90E4      		ldi r25,lo8(64)
 579 0254 0E94 0000 		call pow
 580               	.LVL22:
 581 0258 20E0      		ldi r18,0
 582 025a 30E0      		ldi r19,0
 583 025c 4CED      		ldi r20,lo8(-36)
 584 025e 50E4      		ldi r21,lo8(64)
 585 0260 0E94 0000 		call __mulsf3
 586               	.LVL23:
 587 0264 4B01      		movw r8,r22
 588 0266 5C01      		movw r10,r24
 589               	.LVL24:
 119:../../quantum/process_keycode/process_music.c ****         play_note(freq, 0xF);
 590               		.loc 1 119 0
 591 0268 F801      		movw r30,r16
 592 026a 8281      		ldd r24,Z+2
 593 026c 8823      		tst r24
 594 026e 01F0      		breq .L30
 120:../../quantum/process_keycode/process_music.c ****         if (music_sequence_recording) {
 595               		.loc 1 120 0
 596 0270 4FE0      		ldi r20,lo8(15)
 597 0272 50E0      		ldi r21,0
 598 0274 C501      		movw r24,r10
 599 0276 B401      		movw r22,r8
 600 0278 0E94 0000 		call play_note
 601               	.LVL25:
 121:../../quantum/process_keycode/process_music.c ****           music_sequence[music_sequence_count] = freq;
 602               		.loc 1 121 0
 603 027c 8091 0000 		lds r24,music_sequence_recording
 604 0280 8823      		tst r24
 605 0282 01F0      		breq .L31
 122:../../quantum/process_keycode/process_music.c ****           music_sequence_count++;
 606               		.loc 1 122 0
 607 0284 8091 0000 		lds r24,music_sequence_count
 608 0288 24E0      		ldi r18,lo8(4)
 609 028a 829F      		mul r24,r18
 610 028c F001      		movw r30,r0
 611 028e 1124      		clr __zero_reg__
 612 0290 E050      		subi r30,lo8(-(music_sequence))
 613 0292 F040      		sbci r31,hi8(-(music_sequence))
 614 0294 8082      		st Z,r8
 615 0296 9182      		std Z+1,r9
 616 0298 A282      		std Z+2,r10
 617 029a B382      		std Z+3,r11
 123:../../quantum/process_keycode/process_music.c ****         }
 618               		.loc 1 123 0
 619 029c 8F5F      		subi r24,lo8(-(1))
 620 029e 8093 0000 		sts music_sequence_count,r24
 621 02a2 00C0      		rjmp .L31
 622               	.L30:
 126:../../quantum/process_keycode/process_music.c ****       }
 623               		.loc 1 126 0
 624 02a4 C501      		movw r24,r10
 625 02a6 B401      		movw r22,r8
 626 02a8 0E94 0000 		call stop_note
 627               	.LVL26:
 628               	.L31:
 129:../../quantum/process_keycode/process_music.c ****         return false;
 629               		.loc 1 129 0
 630 02ac 81E0      		ldi r24,lo8(1)
 631 02ae 3FEF      		ldi r19,-1
 632 02b0 E316      		cp r14,r19
 633 02b2 F104      		cpc r15,__zero_reg__
 634 02b4 00F4      		brsh .L13
 635 02b6 00C0      		rjmp .L82
 636               	.LVL27:
 637               	.L33:
 638               	.LBE2:
 132:../../quantum/process_keycode/process_music.c **** }
 639               		.loc 1 132 0
 640 02b8 81E0      		ldi r24,lo8(1)
 641               	.L13:
 642               	/* epilogue start */
 133:../../quantum/process_keycode/process_music.c **** 
 643               		.loc 1 133 0
 644 02ba A396      		adiw r28,35
 645 02bc 0FB6      		in __tmp_reg__,__SREG__
 646 02be F894      		cli
 647 02c0 DEBF      		out __SP_H__,r29
 648 02c2 0FBE      		out __SREG__,__tmp_reg__
 649 02c4 CDBF      		out __SP_L__,r28
 650 02c6 DF91      		pop r29
 651 02c8 CF91      		pop r28
 652 02ca 1F91      		pop r17
 653 02cc 0F91      		pop r16
 654               	.LVL28:
 655 02ce FF90      		pop r15
 656 02d0 EF90      		pop r14
 657               	.LVL29:
 658 02d2 BF90      		pop r11
 659 02d4 AF90      		pop r10
 660 02d6 9F90      		pop r9
 661 02d8 8F90      		pop r8
 662 02da 0895      		ret
 663               		.cfi_endproc
 664               	.LFE107:
 666               		.section	.text.matrix_scan_music,"ax",@progbits
 667               	.global	matrix_scan_music
 669               	matrix_scan_music:
 670               	.LFB115:
 166:../../quantum/process_keycode/process_music.c **** 
 167:../../quantum/process_keycode/process_music.c **** void matrix_scan_music(void) {
 671               		.loc 1 167 0
 672               		.cfi_startproc
 673               	/* prologue: function */
 674               	/* frame size = 0 */
 675               	/* stack size = 0 */
 676               	.L__stack_usage = 0
 168:../../quantum/process_keycode/process_music.c ****   if (music_sequence_playing) {
 677               		.loc 1 168 0
 678 0000 8091 0000 		lds r24,music_sequence_playing
 679 0004 8823      		tst r24
 680 0006 01F4      		brne .+2
 681 0008 00C0      		rjmp .L85
 169:../../quantum/process_keycode/process_music.c ****     if ((music_sequence_timer == 0) || (timer_elapsed(music_sequence_timer) > music_sequence_interv
 682               		.loc 1 169 0
 683 000a 8091 0000 		lds r24,music_sequence_timer
 684 000e 9091 0000 		lds r25,music_sequence_timer+1
 685 0012 0097      		sbiw r24,0
 686 0014 01F4      		brne .L88
 687               	.L91:
 170:../../quantum/process_keycode/process_music.c ****       music_sequence_timer = timer_read();
 688               		.loc 1 170 0
 689 0016 0E94 0000 		call timer_read
 690               	.LVL30:
 691 001a 9093 0000 		sts music_sequence_timer+1,r25
 692 001e 8093 0000 		sts music_sequence_timer,r24
 171:../../quantum/process_keycode/process_music.c ****       stop_note(music_sequence[(music_sequence_position - 1 < 0)?(music_sequence_position - 1 + mus
 693               		.loc 1 171 0
 694 0022 8091 0000 		lds r24,music_sequence_position
 695 0026 90E0      		ldi r25,0
 696 0028 0097      		sbiw r24,0
 697 002a 01F4      		brne .L94
 698               		.loc 1 171 0 is_stmt 0 discriminator 1
 699 002c 8091 0000 		lds r24,music_sequence_count
 700 0030 90E0      		ldi r25,0
 701 0032 00C0      		rjmp .L94
 702               	.L88:
 169:../../quantum/process_keycode/process_music.c ****     if ((music_sequence_timer == 0) || (timer_elapsed(music_sequence_timer) > music_sequence_interv
 703               		.loc 1 169 0 is_stmt 1 discriminator 1
 704 0034 0E94 0000 		call timer_elapsed
 705               	.LVL31:
 706 0038 2091 0000 		lds r18,music_sequence_interval
 707 003c 3091 0000 		lds r19,music_sequence_interval+1
 708 0040 2817      		cp r18,r24
 709 0042 3907      		cpc r19,r25
 710 0044 00F0      		brlo .L91
 711 0046 0895      		ret
 712               	.L94:
 713               		.loc 1 171 0 discriminator 2
 714 0048 0197      		sbiw r24,1
 715 004a 880F      		lsl r24
 716 004c 991F      		rol r25
 717 004e 880F      		lsl r24
 718 0050 991F      		rol r25
 719 0052 FC01      		movw r30,r24
 720 0054 E050      		subi r30,lo8(-(music_sequence))
 721 0056 F040      		sbci r31,hi8(-(music_sequence))
 722 0058 6081      		ld r22,Z
 723 005a 7181      		ldd r23,Z+1
 724 005c 8281      		ldd r24,Z+2
 725 005e 9381      		ldd r25,Z+3
 726 0060 0E94 0000 		call stop_note
 727               	.LVL32:
 172:../../quantum/process_keycode/process_music.c ****       play_note(music_sequence[music_sequence_position], 0xF);
 728               		.loc 1 172 0 discriminator 2
 729 0064 E091 0000 		lds r30,music_sequence_position
 730 0068 84E0      		ldi r24,lo8(4)
 731 006a E89F      		mul r30,r24
 732 006c F001      		movw r30,r0
 733 006e 1124      		clr __zero_reg__
 734 0070 E050      		subi r30,lo8(-(music_sequence))
 735 0072 F040      		sbci r31,hi8(-(music_sequence))
 736 0074 6081      		ld r22,Z
 737 0076 7181      		ldd r23,Z+1
 738 0078 8281      		ldd r24,Z+2
 739 007a 9381      		ldd r25,Z+3
 740 007c 4FE0      		ldi r20,lo8(15)
 741 007e 50E0      		ldi r21,0
 742 0080 0E94 0000 		call play_note
 743               	.LVL33:
 173:../../quantum/process_keycode/process_music.c ****       music_sequence_position = (music_sequence_position + 1) % music_sequence_count;
 744               		.loc 1 173 0 discriminator 2
 745 0084 8091 0000 		lds r24,music_sequence_position
 746 0088 90E0      		ldi r25,0
 747 008a 0196      		adiw r24,1
 748 008c 6091 0000 		lds r22,music_sequence_count
 749 0090 70E0      		ldi r23,0
 750 0092 0E94 0000 		call __divmodhi4
 751 0096 8093 0000 		sts music_sequence_position,r24
 752               	.L85:
 753 009a 0895      		ret
 754               		.cfi_endproc
 755               	.LFE115:
 757               		.section	.data.music_sequence_interval,"aw",@progbits
 760               	music_sequence_interval:
 761 0000 6400      		.word	100
 762               		.section	.bss.music_sequence_timer,"aw",@nobits
 765               	music_sequence_timer:
 766 0000 0000      		.zero	2
 767               		.section	.bss.music_sequence_position,"aw",@nobits
 770               	music_sequence_position:
 771 0000 00        		.zero	1
 772               		.section	.bss.music_sequence_count,"aw",@nobits
 775               	music_sequence_count:
 776 0000 00        		.zero	1
 777               		.section	.bss.music_sequence,"aw",@nobits
 780               	music_sequence:
 781 0000 0000 0000 		.zero	64
 781      0000 0000 
 781      0000 0000 
 781      0000 0000 
 781      0000 0000 
 782               		.section	.bss.music_sequence_playing,"aw",@nobits
 785               	music_sequence_playing:
 786 0000 00        		.zero	1
 787               		.section	.bss.music_sequence_recorded,"aw",@nobits
 790               	music_sequence_recorded:
 791 0000 00        		.zero	1
 792               		.section	.bss.music_sequence_recording,"aw",@nobits
 795               	music_sequence_recording:
 796 0000 00        		.zero	1
 797               	.global	offset
 798               		.section	.data.offset,"aw",@progbits
 801               	offset:
 802 0000 0700      		.word	7
 803               	.global	starting_note
 804               		.section	.data.starting_note,"aw",@progbits
 807               	starting_note:
 808 0000 0C        		.byte	12
 809               	.global	music_activated
 810               		.section	.bss.music_activated,"aw",@nobits
 813               	music_activated:
 814 0000 00        		.zero	1
 815               		.text
 816               	.Letext0:
 817               		.file 2 "/usr/local/Cellar/avr-gcc/4.9.3/avr/include/stdint.h"
 818               		.file 3 "../../tmk_core/common/keyboard.h"
 819               		.file 4 "../../tmk_core/common/action.h"
 820               		.file 5 "../../tmk_core/common/keycode.h"
 821               		.file 6 "../../quantum/keymap.h"
 822               		.file 7 "../../tmk_core/protocol/lufa/LUFA-git/LUFA/Drivers/USB/Core/USBTask.h"
 823               		.file 8 "../../quantum/audio/audio.h"
 824               		.file 9 "../../quantum/audio/voices.h"
 825               		.file 10 "../../tmk_core/common/timer.h"
 826               		.file 11 "/usr/local/Cellar/avr-gcc/4.9.3/avr/include/math.h"