   1               		.file	"keymap_common.c"
   2               	__SP_H__ = 0x3e
   3               	__SP_L__ = 0x3d
   4               	__SREG__ = 0x3f
   5               	__tmp_reg__ = 0
   6               	__zero_reg__ = 1
   7               		.text
   8               	.Ltext0:
   9               		.cfi_sections	.debug_frame
  10               		.section	.text.action_for_key,"ax",@progbits
  11               	.global	action_for_key
  13               	action_for_key:
  14               	.LFB107:
  15               		.file 1 "../../quantum/keymap_common.c"
   1:../../quantum/keymap_common.c **** /*
   2:../../quantum/keymap_common.c **** Copyright 2012,2013 Jun Wako <wakojun@gmail.com>
   3:../../quantum/keymap_common.c **** 
   4:../../quantum/keymap_common.c **** This program is free software: you can redistribute it and/or modify
   5:../../quantum/keymap_common.c **** it under the terms of the GNU General Public License as published by
   6:../../quantum/keymap_common.c **** the Free Software Foundation, either version 2 of the License, or
   7:../../quantum/keymap_common.c **** (at your option) any later version.
   8:../../quantum/keymap_common.c **** 
   9:../../quantum/keymap_common.c **** This program is distributed in the hope that it will be useful,
  10:../../quantum/keymap_common.c **** but WITHOUT ANY WARRANTY; without even the implied warranty of
  11:../../quantum/keymap_common.c **** MERCHANTABILITY or FITNESS FOR A PARTICULAR PURPOSE.  See the
  12:../../quantum/keymap_common.c **** GNU General Public License for more details.
  13:../../quantum/keymap_common.c **** 
  14:../../quantum/keymap_common.c **** You should have received a copy of the GNU General Public License
  15:../../quantum/keymap_common.c **** along with this program.  If not, see <http://www.gnu.org/licenses/>.
  16:../../quantum/keymap_common.c **** */
  17:../../quantum/keymap_common.c **** 
  18:../../quantum/keymap_common.c **** #include "keymap.h"
  19:../../quantum/keymap_common.c **** #include "report.h"
  20:../../quantum/keymap_common.c **** #include "keycode.h"
  21:../../quantum/keymap_common.c **** #include "action_layer.h"
  22:../../quantum/keymap_common.c **** #if defined(__AVR__)
  23:../../quantum/keymap_common.c **** #include <util/delay.h>
  24:../../quantum/keymap_common.c **** #include <stdio.h>
  25:../../quantum/keymap_common.c **** #endif
  26:../../quantum/keymap_common.c **** #include "action.h"
  27:../../quantum/keymap_common.c **** #include "action_macro.h"
  28:../../quantum/keymap_common.c **** #include "debug.h"
  29:../../quantum/keymap_common.c **** #include "backlight.h"
  30:../../quantum/keymap_common.c **** #include "quantum.h"
  31:../../quantum/keymap_common.c **** 
  32:../../quantum/keymap_common.c **** #ifdef MIDI_ENABLE
  33:../../quantum/keymap_common.c **** 	#include "process_midi.h"
  34:../../quantum/keymap_common.c **** #endif
  35:../../quantum/keymap_common.c **** 
  36:../../quantum/keymap_common.c **** extern keymap_config_t keymap_config;
  37:../../quantum/keymap_common.c **** 
  38:../../quantum/keymap_common.c **** #include <inttypes.h>
  39:../../quantum/keymap_common.c **** 
  40:../../quantum/keymap_common.c **** /* converts key to action */
  41:../../quantum/keymap_common.c **** action_t action_for_key(uint8_t layer, keypos_t key)
  42:../../quantum/keymap_common.c **** {
  16               		.loc 1 42 0
  17               		.cfi_startproc
  18               	.LVL0:
  19               	/* prologue: function */
  20               	/* frame size = 0 */
  21               	/* stack size = 0 */
  22               	.L__stack_usage = 0
  23               	.LBB7:
  24               	.LBB8:
  43:../../quantum/keymap_common.c ****     // 16bit keycodes - important
  44:../../quantum/keymap_common.c ****     uint16_t keycode = keymap_key_to_keycode(layer, key);
  45:../../quantum/keymap_common.c **** 
  46:../../quantum/keymap_common.c ****     // keycode remapping
  47:../../quantum/keymap_common.c ****     keycode = keycode_config(keycode);
  48:../../quantum/keymap_common.c **** 
  49:../../quantum/keymap_common.c ****     action_t action;
  50:../../quantum/keymap_common.c ****     uint8_t action_layer, when, mod;
  51:../../quantum/keymap_common.c ****     // The arm-none-eabi compiler generates out of bounds warnings when using the fn_actions direct
  52:../../quantum/keymap_common.c ****     const uint16_t* actions = fn_actions;
  53:../../quantum/keymap_common.c **** 
  54:../../quantum/keymap_common.c ****     switch (keycode) {
  55:../../quantum/keymap_common.c ****         case KC_FN0 ... KC_FN31:
  56:../../quantum/keymap_common.c ****             action.code = pgm_read_word(&actions[FN_INDEX(keycode)]);
  57:../../quantum/keymap_common.c ****             break;
  58:../../quantum/keymap_common.c ****         case KC_A ... KC_EXSEL:
  59:../../quantum/keymap_common.c ****         case KC_LCTRL ... KC_RGUI:
  60:../../quantum/keymap_common.c ****             action.code = ACTION_KEY(keycode);
  61:../../quantum/keymap_common.c ****             break;
  62:../../quantum/keymap_common.c ****         case KC_SYSTEM_POWER ... KC_SYSTEM_WAKE:
  63:../../quantum/keymap_common.c ****             action.code = ACTION_USAGE_SYSTEM(KEYCODE2SYSTEM(keycode));
  64:../../quantum/keymap_common.c ****             break;
  65:../../quantum/keymap_common.c ****         case KC_AUDIO_MUTE ... KC_MEDIA_REWIND:
  66:../../quantum/keymap_common.c ****             action.code = ACTION_USAGE_CONSUMER(KEYCODE2CONSUMER(keycode));
  67:../../quantum/keymap_common.c ****             break;
  68:../../quantum/keymap_common.c ****         case KC_MS_UP ... KC_MS_ACCEL2:
  69:../../quantum/keymap_common.c ****             action.code = ACTION_MOUSEKEY(keycode);
  70:../../quantum/keymap_common.c ****             break;
  71:../../quantum/keymap_common.c ****         case KC_TRNS:
  72:../../quantum/keymap_common.c ****             action.code = ACTION_TRANSPARENT;
  73:../../quantum/keymap_common.c ****             break;
  74:../../quantum/keymap_common.c ****         case QK_MODS ... QK_MODS_MAX: ;
  75:../../quantum/keymap_common.c ****             // Has a modifier
  76:../../quantum/keymap_common.c ****             // Split it up
  77:../../quantum/keymap_common.c ****             action.code = ACTION_MODS_KEY(keycode >> 8, keycode & 0xFF); // adds modifier to key
  78:../../quantum/keymap_common.c ****             break;
  79:../../quantum/keymap_common.c ****         case QK_FUNCTION ... QK_FUNCTION_MAX: ;
  80:../../quantum/keymap_common.c ****             // Is a shortcut for function action_layer, pull last 12bits
  81:../../quantum/keymap_common.c ****             // This means we have 4,096 FN macros at our disposal
  82:../../quantum/keymap_common.c ****             action.code = pgm_read_word(&actions[(int)keycode & 0xFFF]);
  83:../../quantum/keymap_common.c ****             break;
  84:../../quantum/keymap_common.c ****         case QK_MACRO ... QK_MACRO_MAX:
  85:../../quantum/keymap_common.c ****             action.code = ACTION_MACRO(keycode & 0xFF);
  86:../../quantum/keymap_common.c ****             break;
  87:../../quantum/keymap_common.c ****         case QK_LAYER_TAP ... QK_LAYER_TAP_MAX:
  88:../../quantum/keymap_common.c ****             action.code = ACTION_LAYER_TAP_KEY((keycode >> 0x8) & 0xF, keycode & 0xFF);
  89:../../quantum/keymap_common.c ****             break;
  90:../../quantum/keymap_common.c ****         case QK_TO ... QK_TO_MAX: ;
  91:../../quantum/keymap_common.c ****             // Layer set "GOTO"
  92:../../quantum/keymap_common.c ****             when = (keycode >> 0x4) & 0x3;
  93:../../quantum/keymap_common.c ****             action_layer = keycode & 0xF;
  94:../../quantum/keymap_common.c ****             action.code = ACTION_LAYER_SET(action_layer, when);
  95:../../quantum/keymap_common.c ****             break;
  96:../../quantum/keymap_common.c ****         case QK_MOMENTARY ... QK_MOMENTARY_MAX: ;
  97:../../quantum/keymap_common.c ****             // Momentary action_layer
  98:../../quantum/keymap_common.c ****             action_layer = keycode & 0xFF;
  99:../../quantum/keymap_common.c ****             action.code = ACTION_LAYER_MOMENTARY(action_layer);
 100:../../quantum/keymap_common.c ****             break;
 101:../../quantum/keymap_common.c ****         case QK_DEF_LAYER ... QK_DEF_LAYER_MAX: ;
 102:../../quantum/keymap_common.c ****             // Set default action_layer
 103:../../quantum/keymap_common.c ****             action_layer = keycode & 0xFF;
 104:../../quantum/keymap_common.c ****             action.code = ACTION_DEFAULT_LAYER_SET(action_layer);
 105:../../quantum/keymap_common.c ****             break;
 106:../../quantum/keymap_common.c ****         case QK_TOGGLE_LAYER ... QK_TOGGLE_LAYER_MAX: ;
 107:../../quantum/keymap_common.c ****             // Set toggle
 108:../../quantum/keymap_common.c ****             action_layer = keycode & 0xFF;
 109:../../quantum/keymap_common.c ****             action.code = ACTION_LAYER_TOGGLE(action_layer);
 110:../../quantum/keymap_common.c ****             break;
 111:../../quantum/keymap_common.c ****         case QK_ONE_SHOT_LAYER ... QK_ONE_SHOT_LAYER_MAX: ;
 112:../../quantum/keymap_common.c ****             // OSL(action_layer) - One-shot action_layer
 113:../../quantum/keymap_common.c ****             action_layer = keycode & 0xFF;
 114:../../quantum/keymap_common.c ****             action.code = ACTION_LAYER_ONESHOT(action_layer);
 115:../../quantum/keymap_common.c ****             break;
 116:../../quantum/keymap_common.c ****         case QK_ONE_SHOT_MOD ... QK_ONE_SHOT_MOD_MAX: ;
 117:../../quantum/keymap_common.c ****             // OSM(mod) - One-shot mod
 118:../../quantum/keymap_common.c ****             mod = keycode & 0xFF;
 119:../../quantum/keymap_common.c ****             action.code = ACTION_MODS_ONESHOT(mod);
 120:../../quantum/keymap_common.c ****             break;
 121:../../quantum/keymap_common.c ****         case QK_MOD_TAP ... QK_MOD_TAP_MAX:
 122:../../quantum/keymap_common.c ****             action.code = ACTION_MODS_TAP_KEY((keycode >> 0x8) & 0xF, keycode & 0xFF);
 123:../../quantum/keymap_common.c ****             break;
 124:../../quantum/keymap_common.c ****     #ifdef BACKLIGHT_ENABLE
 125:../../quantum/keymap_common.c ****         case BL_0 ... BL_15:
 126:../../quantum/keymap_common.c ****             action.code = ACTION_BACKLIGHT_LEVEL(keycode - BL_0);
 127:../../quantum/keymap_common.c ****             break;
 128:../../quantum/keymap_common.c ****         case BL_DEC:
 129:../../quantum/keymap_common.c ****             action.code = ACTION_BACKLIGHT_DECREASE();
 130:../../quantum/keymap_common.c ****             break;
 131:../../quantum/keymap_common.c ****         case BL_INC:
 132:../../quantum/keymap_common.c ****             action.code = ACTION_BACKLIGHT_INCREASE();
 133:../../quantum/keymap_common.c ****             break;
 134:../../quantum/keymap_common.c ****         case BL_TOGG:
 135:../../quantum/keymap_common.c ****             action.code = ACTION_BACKLIGHT_TOGGLE();
 136:../../quantum/keymap_common.c ****             break;
 137:../../quantum/keymap_common.c ****         case BL_STEP:
 138:../../quantum/keymap_common.c ****             action.code = ACTION_BACKLIGHT_STEP();
 139:../../quantum/keymap_common.c ****             break;
 140:../../quantum/keymap_common.c ****     #endif
 141:../../quantum/keymap_common.c ****         default:
 142:../../quantum/keymap_common.c ****             action.code = ACTION_NO;
 143:../../quantum/keymap_common.c ****             break;
 144:../../quantum/keymap_common.c ****     }
 145:../../quantum/keymap_common.c ****     return action;
 146:../../quantum/keymap_common.c **** }
 147:../../quantum/keymap_common.c **** 
 148:../../quantum/keymap_common.c **** __attribute__ ((weak))
 149:../../quantum/keymap_common.c **** const uint16_t PROGMEM fn_actions[] = {
 150:../../quantum/keymap_common.c **** 
 151:../../quantum/keymap_common.c **** };
 152:../../quantum/keymap_common.c **** 
 153:../../quantum/keymap_common.c **** /* Macro */
 154:../../quantum/keymap_common.c **** __attribute__ ((weak))
 155:../../quantum/keymap_common.c **** const macro_t *action_get_macro(keyrecord_t *record, uint8_t id, uint8_t opt)
 156:../../quantum/keymap_common.c **** {
 157:../../quantum/keymap_common.c ****     return MACRO_NONE;
 158:../../quantum/keymap_common.c **** }
 159:../../quantum/keymap_common.c **** 
 160:../../quantum/keymap_common.c **** /* Function */
 161:../../quantum/keymap_common.c **** __attribute__ ((weak))
 162:../../quantum/keymap_common.c **** void action_function(keyrecord_t *record, uint8_t id, uint8_t opt)
 163:../../quantum/keymap_common.c **** {
 164:../../quantum/keymap_common.c **** }
 165:../../quantum/keymap_common.c **** 
 166:../../quantum/keymap_common.c **** /* translates key to keycode */
 167:../../quantum/keymap_common.c **** uint16_t keymap_key_to_keycode(uint8_t layer, keypos_t key)
 168:../../quantum/keymap_common.c **** {
 169:../../quantum/keymap_common.c ****     // Read entire word (16bits)
 170:../../quantum/keymap_common.c ****     return pgm_read_word(&keymaps[(layer)][(key.row)][(key.col)]);
  25               		.loc 1 170 0
  26 0000 2CE0      		ldi r18,lo8(12)
  27 0002 729F      		mul r23,r18
  28 0004 F001      		movw r30,r0
  29 0006 1124      		clr __zero_reg__
  30 0008 3CE3      		ldi r19,lo8(60)
  31 000a 839F      		mul r24,r19
  32 000c E00D      		add r30,r0
  33 000e F11D      		adc r31,r1
  34 0010 1124      		clr __zero_reg__
  35 0012 E60F      		add r30,r22
  36 0014 F11D      		adc r31,__zero_reg__
  37 0016 EE0F      		lsl r30
  38 0018 FF1F      		rol r31
  39 001a E050      		subi r30,lo8(-(keymaps))
  40 001c F040      		sbci r31,hi8(-(keymaps))
  41               	.LVL1:
  42               	.LBE8:
  43               	.LBE7:
  47:../../quantum/keymap_common.c **** 
  44               		.loc 1 47 0
  45               	/* #APP */
  46               	 ;  170 "../../quantum/keymap_common.c" 1
  47 001e 8591      		lpm r24, Z+
  48 0020 9491      		lpm r25, Z
  49               		
  50               	 ;  0 "" 2
  51               	.LVL2:
  52               	/* #NOAPP */
  53 0022 0E94 0000 		call keycode_config
  54               	.LVL3:
  54:../../quantum/keymap_common.c ****         case KC_FN0 ... KC_FN31:
  55               		.loc 1 54 0
  56 0026 8115      		cp r24,__zero_reg__
  57 0028 40E5      		ldi r20,80
  58 002a 9407      		cpc r25,r20
  59 002c 00F0      		brlo .+2
  60 002e 00C0      		rjmp .L3
  61 0030 8115      		cp r24,__zero_reg__
  62 0032 20E4      		ldi r18,64
  63 0034 9207      		cpc r25,r18
  64 0036 00F0      		brlo .+2
  65 0038 00C0      		rjmp .L4
  66 003a 883E      		cpi r24,-24
  67 003c 9105      		cpc r25,__zero_reg__
  68 003e 00F4      		brsh .L5
  69 0040 803E      		cpi r24,-32
  70 0042 9105      		cpc r25,__zero_reg__
  71 0044 00F0      		brlo .+2
  72 0046 00C0      		rjmp .L6
  73 0048 883A      		cpi r24,-88
  74 004a 9105      		cpc r25,__zero_reg__
  75 004c 00F4      		brsh .L7
  76 004e 853A      		cpi r24,-91
  77 0050 9105      		cpc r25,__zero_reg__
  78 0052 00F0      		brlo .+2
  79 0054 00C0      		rjmp .L8
  80 0056 8130      		cpi r24,1
  81 0058 9105      		cpc r25,__zero_reg__
  82 005a 01F4      		brne .+2
  83 005c 00C0      		rjmp .L6
  84 005e 00F4      		brsh .+2
  85 0060 00C0      		rjmp .L2
  86 0062 8430      		cpi r24,4
  87 0064 9105      		cpc r25,__zero_reg__
  88 0066 00F0      		brlo .+2
  89 0068 00C0      		rjmp .L6
  90 006a 00C0      		rjmp .L2
  91               	.L7:
  92 006c 8D3B      		cpi r24,-67
  93 006e 9105      		cpc r25,__zero_reg__
  94 0070 00F4      		brsh .+2
  95 0072 00C0      		rjmp .L9
  96 0074 803C      		cpi r24,-64
  97 0076 9105      		cpc r25,__zero_reg__
  98 0078 00F4      		brsh .+2
  99 007a 00C0      		rjmp .L2
 100               	.LBB9:
  56:../../quantum/keymap_common.c ****             break;
 101               		.loc 1 56 0
 102 007c FC01      		movw r30,r24
 103 007e EE0F      		lsl r30
 104 0080 FF1F      		rol r31
 105 0082 E050      		subi r30,lo8(-(fn_actions-384))
 106 0084 F040      		sbci r31,hi8(-(fn_actions-384))
 107               	.LVL4:
 108 0086 00C0      		rjmp .L62
 109               	.LVL5:
 110               	.L5:
 111               	.LBE9:
  54:../../quantum/keymap_common.c ****         case KC_FN0 ... KC_FN31:
 112               		.loc 1 54 0
 113 0088 8115      		cp r24,__zero_reg__
 114 008a 30E2      		ldi r19,32
 115 008c 9307      		cpc r25,r19
 116 008e 00F4      		brsh .L11
 117 0090 8115      		cp r24,__zero_reg__
 118 0092 41E0      		ldi r20,1
 119 0094 9407      		cpc r25,r20
 120 0096 00F0      		brlo .+2
 121 0098 00C0      		rjmp .L6
 122 009a 803F      		cpi r24,-16
 123 009c 9105      		cpc r25,__zero_reg__
 124 009e 00F4      		brsh .+2
 125 00a0 00C0      		rjmp .L2
 126               	.LVL6:
  69:../../quantum/keymap_common.c ****             break;
 127               		.loc 1 69 0
 128 00a2 9065      		ori r25,80
 129               	.LVL7:
  70:../../quantum/keymap_common.c ****         case KC_TRNS:
 130               		.loc 1 70 0
 131 00a4 0895      		ret
 132               	.LVL8:
 133               	.L11:
  54:../../quantum/keymap_common.c ****         case KC_FN0 ... KC_FN31:
 134               		.loc 1 54 0
 135 00a6 8115      		cp r24,__zero_reg__
 136 00a8 20E3      		ldi r18,48
 137 00aa 9207      		cpc r25,r18
 138 00ac 00F0      		brlo .+2
 139 00ae 00C0      		rjmp .L58
 140               	.LBB10:
  82:../../quantum/keymap_common.c ****             break;
 141               		.loc 1 82 0
 142 00b0 FC01      		movw r30,r24
 143 00b2 FF70      		andi r31,15
 144 00b4 EE0F      		lsl r30
 145 00b6 FF1F      		rol r31
 146 00b8 E050      		subi r30,lo8(-(fn_actions))
 147 00ba F040      		sbci r31,hi8(-(fn_actions))
 148 00bc 00C0      		rjmp .L62
 149               	.L3:
 150               	.LBE10:
  54:../../quantum/keymap_common.c ****         case KC_FN0 ... KC_FN31:
 151               		.loc 1 54 0
 152 00be 8115      		cp r24,__zero_reg__
 153 00c0 35E5      		ldi r19,85
 154 00c2 9307      		cpc r25,r19
 155 00c4 00F0      		brlo .+2
 156 00c6 00C0      		rjmp .L15
 157 00c8 8115      		cp r24,__zero_reg__
 158 00ca 44E5      		ldi r20,84
 159 00cc 9407      		cpc r25,r20
 160 00ce 00F0      		brlo .+2
 161 00d0 00C0      		rjmp .L16
 162 00d2 8115      		cp r24,__zero_reg__
 163 00d4 22E5      		ldi r18,82
 164 00d6 9207      		cpc r25,r18
 165 00d8 00F4      		brsh .L17
 166 00da 8115      		cp r24,__zero_reg__
 167 00dc 31E5      		ldi r19,81
 168 00de 9307      		cpc r25,r19
 169 00e0 00F0      		brlo .+2
 170 00e2 00C0      		rjmp .L65
 171               	.LVL9:
  94:../../quantum/keymap_common.c ****             break;
 172               		.loc 1 94 0
 173 00e4 482F      		mov r20,r24
 174 00e6 4370      		andi r20,lo8(3)
 175 00e8 21E0      		ldi r18,lo8(1)
 176 00ea 30E0      		ldi r19,0
 177 00ec 00C0      		rjmp 2f
 178               		1:
 179 00ee 220F      		lsl r18
 180 00f0 331F      		rol r19
 181               		2:
 182 00f2 4A95      		dec r20
 183 00f4 02F4      		brpl 1b
 184 00f6 3C68      		ori r19,140
  92:../../quantum/keymap_common.c ****             action_layer = keycode & 0xF;
 185               		.loc 1 92 0
 186 00f8 AC01      		movw r20,r24
 187 00fa 64E0      		ldi r22,4
 188               		1:
 189 00fc 5695      		lsr r21
 190 00fe 4795      		ror r20
 191 0100 6A95      		dec r22
 192 0102 01F4      		brne 1b
 193 0104 4370      		andi r20,lo8(3)
 194 0106 342B      		or r19,r20
  93:../../quantum/keymap_common.c ****             action.code = ACTION_LAYER_SET(action_layer, when);
 195               		.loc 1 93 0
 196 0108 8F70      		andi r24,lo8(15)
 197               	.LVL10:
  94:../../quantum/keymap_common.c ****             break;
 198               		.loc 1 94 0
 199 010a 8695      		lsr r24
 200 010c 8695      		lsr r24
 201 010e 40E2      		ldi r20,lo8(32)
 202 0110 849F      		mul r24,r20
 203 0112 C001      		movw r24,r0
 204 0114 1124      		clr __zero_reg__
 205               	.LVL11:
 206 0116 822B      		or r24,r18
 207 0118 932B      		or r25,r19
 208               	.LVL12:
  95:../../quantum/keymap_common.c ****         case QK_MOMENTARY ... QK_MOMENTARY_MAX: ;
 209               		.loc 1 95 0
 210 011a 0895      		ret
 211               	.LVL13:
 212               	.L17:
 213 011c 282F      		mov r18,r24
 214 011e 2695      		lsr r18
 215 0120 2695      		lsr r18
 216 0122 AC01      		movw r20,r24
 217 0124 4370      		andi r20,3
 218 0126 5527      		clr r21
  54:../../quantum/keymap_common.c ****         case KC_FN0 ... KC_FN31:
 219               		.loc 1 54 0
 220 0128 8115      		cp r24,__zero_reg__
 221 012a 9345      		sbci r25,83
 222 012c 00F0      		brlo .+2
 223 012e 00C0      		rjmp .L60
 224               	.LVL14:
 104:../../quantum/keymap_common.c ****             break;
 225               		.loc 1 104 0
 226 0130 80E2      		ldi r24,lo8(32)
 227               	.LVL15:
 228 0132 289F      		mul r18,r24
 229 0134 9001      		movw r18,r0
 230 0136 1124      		clr __zero_reg__
 231 0138 81E0      		ldi r24,lo8(1)
 232 013a 90E0      		ldi r25,0
 233 013c 00C0      		rjmp 2f
 234               		1:
 235 013e 880F      		lsl r24
 236 0140 991F      		rol r25
 237               		2:
 238 0142 4A95      		dec r20
 239 0144 02F4      		brpl 1b
 240 0146 822B      		or r24,r18
 241 0148 932B      		or r25,r19
 242               	.LVL16:
 243 014a 9C68      		ori r25,140
 244               	.LVL17:
 105:../../quantum/keymap_common.c ****         case QK_TOGGLE_LAYER ... QK_TOGGLE_LAYER_MAX: ;
 245               		.loc 1 105 0
 246 014c 0895      		ret
 247               	.LVL18:
 248               	.L15:
  54:../../quantum/keymap_common.c ****         case KC_FN0 ... KC_FN31:
 249               		.loc 1 54 0
 250 014e 8F32      		cpi r24,47
 251 0150 40E7      		ldi r20,112
 252 0152 9407      		cpc r25,r20
 253 0154 00F4      		brsh .L22
 254 0156 8F31      		cpi r24,31
 255 0158 20E7      		ldi r18,112
 256 015a 9207      		cpc r25,r18
 257 015c 00F0      		brlo .+2
 258 015e 00C0      		rjmp .L23
 259 0160 8115      		cp r24,__zero_reg__
 260 0162 36E5      		ldi r19,86
 261 0164 9307      		cpc r25,r19
 262 0166 00F4      		brsh .+2
 263 0168 00C0      		rjmp .L24
 264 016a 9C01      		movw r18,r24
 265 016c 3056      		subi r19,96
 266 016e 2115      		cp r18,__zero_reg__
 267 0170 3041      		sbci r19,16
 268 0172 00F0      		brlo .+2
 269 0174 00C0      		rjmp .L2
 122:../../quantum/keymap_common.c ****             break;
 270               		.loc 1 122 0
 271 0176 9F70      		andi r25,15
 272               	.LVL19:
 273 0178 00C0      		rjmp .L63
 274               	.LVL20:
 275               	.L22:
  54:../../quantum/keymap_common.c ****         case KC_FN0 ... KC_FN31:
 276               		.loc 1 54 0
 277 017a 8033      		cpi r24,48
 278 017c 20E7      		ldi r18,112
 279 017e 9207      		cpc r25,r18
 280 0180 01F4      		brne .+2
 281 0182 00C0      		rjmp .L26
 282 0184 00F4      		brsh .+2
 283 0186 00C0      		rjmp .L27
 284 0188 8133      		cpi r24,49
 285 018a 40E7      		ldi r20,112
 286 018c 9407      		cpc r25,r20
 287 018e 01F4      		brne .+2
 288 0190 00C0      		rjmp .L28
 289 0192 8233      		cpi r24,50
 290 0194 9047      		sbci r25,112
 291 0196 01F0      		breq .+2
 292 0198 00C0      		rjmp .L2
 293               	.LVL21:
 138:../../quantum/keymap_common.c ****             break;
 294               		.loc 1 138 0
 295 019a 80E0      		ldi r24,0
 296 019c 93ED      		ldi r25,lo8(-45)
 139:../../quantum/keymap_common.c ****     #endif
 297               		.loc 1 139 0
 298 019e 0895      		ret
 299               	.LVL22:
 300               	.L8:
  63:../../quantum/keymap_common.c ****             break;
 301               		.loc 1 63 0
 302 01a0 853A      		cpi r24,-91
 303 01a2 9105      		cpc r25,__zero_reg__
 304 01a4 01F4      		brne .+2
 305 01a6 00C0      		rjmp .L30
  63:../../quantum/keymap_common.c ****             break;
 306               		.loc 1 63 0 is_stmt 0 discriminator 1
 307 01a8 863A      		cpi r24,-90
 308 01aa 9105      		cpc r25,__zero_reg__
 309 01ac 01F0      		breq .+2
 310 01ae 00C0      		rjmp .L31
 311               	.LVL23:
  63:../../quantum/keymap_common.c ****             break;
 312               		.loc 1 63 0
 313 01b0 82E8      		ldi r24,lo8(-126)
 314 01b2 90E4      		ldi r25,lo8(64)
 315 01b4 0895      		ret
 316               	.LVL24:
 317               	.L9:
  66:../../quantum/keymap_common.c ****             break;
 318               		.loc 1 66 0 is_stmt 1
 319 01b6 883A      		cpi r24,-88
 320 01b8 9105      		cpc r25,__zero_reg__
 321 01ba 01F4      		brne .+2
 322 01bc 00C0      		rjmp .L32
  66:../../quantum/keymap_common.c ****             break;
 323               		.loc 1 66 0 is_stmt 0 discriminator 1
 324 01be 893A      		cpi r24,-87
 325 01c0 9105      		cpc r25,__zero_reg__
 326 01c2 01F4      		brne .+2
 327 01c4 00C0      		rjmp .L33
  66:../../quantum/keymap_common.c ****             break;
 328               		.loc 1 66 0 discriminator 3
 329 01c6 8A3A      		cpi r24,-86
 330 01c8 9105      		cpc r25,__zero_reg__
 331 01ca 01F4      		brne .+2
 332 01cc 00C0      		rjmp .L34
  66:../../quantum/keymap_common.c ****             break;
 333               		.loc 1 66 0 discriminator 5
 334 01ce 8B3A      		cpi r24,-85
 335 01d0 9105      		cpc r25,__zero_reg__
 336 01d2 01F4      		brne .+2
 337 01d4 00C0      		rjmp .L35
  66:../../quantum/keymap_common.c ****             break;
 338               		.loc 1 66 0 discriminator 7
 339 01d6 8C3A      		cpi r24,-84
 340 01d8 9105      		cpc r25,__zero_reg__
 341 01da 01F4      		brne .+2
 342 01dc 00C0      		rjmp .L36
  66:../../quantum/keymap_common.c ****             break;
 343               		.loc 1 66 0 discriminator 9
 344 01de 8B3B      		cpi r24,-69
 345 01e0 9105      		cpc r25,__zero_reg__
 346 01e2 01F4      		brne .+2
 347 01e4 00C0      		rjmp .L37
  66:../../quantum/keymap_common.c ****             break;
 348               		.loc 1 66 0 discriminator 11
 349 01e6 8C3B      		cpi r24,-68
 350 01e8 9105      		cpc r25,__zero_reg__
 351 01ea 01F4      		brne .+2
 352 01ec 00C0      		rjmp .L38
  66:../../quantum/keymap_common.c ****             break;
 353               		.loc 1 66 0 discriminator 13
 354 01ee 8D3A      		cpi r24,-83
 355 01f0 9105      		cpc r25,__zero_reg__
 356 01f2 01F4      		brne .+2
 357 01f4 00C0      		rjmp .L39
  66:../../quantum/keymap_common.c ****             break;
 358               		.loc 1 66 0 discriminator 15
 359 01f6 803B      		cpi r24,-80
 360 01f8 9105      		cpc r25,__zero_reg__
 361 01fa 01F4      		brne .+2
 362 01fc 00C0      		rjmp .L40
  66:../../quantum/keymap_common.c ****             break;
 363               		.loc 1 66 0 discriminator 17
 364 01fe 8E3A      		cpi r24,-82
 365 0200 9105      		cpc r25,__zero_reg__
 366 0202 01F4      		brne .+2
 367 0204 00C0      		rjmp .L41
  66:../../quantum/keymap_common.c ****             break;
 368               		.loc 1 66 0 discriminator 19
 369 0206 8F3A      		cpi r24,-81
 370 0208 9105      		cpc r25,__zero_reg__
 371 020a 01F4      		brne .+2
 372 020c 00C0      		rjmp .L42
  66:../../quantum/keymap_common.c ****             break;
 373               		.loc 1 66 0 discriminator 21
 374 020e 813B      		cpi r24,-79
 375 0210 9105      		cpc r25,__zero_reg__
 376 0212 01F4      		brne .+2
 377 0214 00C0      		rjmp .L43
  66:../../quantum/keymap_common.c ****             break;
 378               		.loc 1 66 0 discriminator 23
 379 0216 823B      		cpi r24,-78
 380 0218 9105      		cpc r25,__zero_reg__
 381 021a 01F4      		brne .+2
 382 021c 00C0      		rjmp .L44
  66:../../quantum/keymap_common.c ****             break;
 383               		.loc 1 66 0 discriminator 25
 384 021e 833B      		cpi r24,-77
 385 0220 9105      		cpc r25,__zero_reg__
 386 0222 01F4      		brne .+2
 387 0224 00C0      		rjmp .L45
  66:../../quantum/keymap_common.c ****             break;
 388               		.loc 1 66 0 discriminator 27
 389 0226 843B      		cpi r24,-76
 390 0228 9105      		cpc r25,__zero_reg__
 391 022a 01F4      		brne .+2
 392 022c 00C0      		rjmp .L46
  66:../../quantum/keymap_common.c ****             break;
 393               		.loc 1 66 0 discriminator 29
 394 022e 853B      		cpi r24,-75
 395 0230 9105      		cpc r25,__zero_reg__
 396 0232 01F4      		brne .+2
 397 0234 00C0      		rjmp .L47
  66:../../quantum/keymap_common.c ****             break;
 398               		.loc 1 66 0 discriminator 31
 399 0236 863B      		cpi r24,-74
 400 0238 9105      		cpc r25,__zero_reg__
 401 023a 01F4      		brne .+2
 402 023c 00C0      		rjmp .L48
  66:../../quantum/keymap_common.c ****             break;
 403               		.loc 1 66 0 discriminator 33
 404 023e 873B      		cpi r24,-73
 405 0240 9105      		cpc r25,__zero_reg__
 406 0242 01F4      		brne .+2
 407 0244 00C0      		rjmp .L49
  66:../../quantum/keymap_common.c ****             break;
 408               		.loc 1 66 0 discriminator 35
 409 0246 883B      		cpi r24,-72
 410 0248 9105      		cpc r25,__zero_reg__
 411 024a 01F4      		brne .+2
 412 024c 00C0      		rjmp .L50
  66:../../quantum/keymap_common.c ****             break;
 413               		.loc 1 66 0 discriminator 37
 414 024e 893B      		cpi r24,-71
 415 0250 9105      		cpc r25,__zero_reg__
 416 0252 01F4      		brne .+2
 417 0254 00C0      		rjmp .L51
  66:../../quantum/keymap_common.c ****             break;
 418               		.loc 1 66 0 discriminator 39
 419 0256 8A3B      		cpi r24,-70
 420 0258 9105      		cpc r25,__zero_reg__
 421 025a 01F4      		brne .+2
 422 025c 00C0      		rjmp .L52
 423               	.LVL25:
  66:../../quantum/keymap_common.c ****             break;
 424               		.loc 1 66 0
 425 025e 80E0      		ldi r24,0
 426 0260 94E4      		ldi r25,lo8(68)
 427 0262 0895      		ret
 428               	.LVL26:
 429               	.L62:
 430               	.LBB11:
  82:../../quantum/keymap_common.c ****             break;
 431               		.loc 1 82 0 is_stmt 1
 432               	/* #APP */
 433               	 ;  82 "../../quantum/keymap_common.c" 1
 434 0264 8591      		lpm r24, Z+
 435 0266 9491      		lpm r25, Z
 436               		
 437               	 ;  0 "" 2
 438               	.LVL27:
 439               	/* #NOAPP */
 440               	.LBE11:
  83:../../quantum/keymap_common.c ****         case QK_MACRO ... QK_MACRO_MAX:
 441               		.loc 1 83 0
 442 0268 0895      		ret
 443               	.LVL28:
 444               	.L58:
  85:../../quantum/keymap_common.c ****             break;
 445               		.loc 1 85 0
 446 026a 9927      		clr r25
 447               	.LVL29:
 448 026c 906C      		ori r25,192
 449               	.LVL30:
  86:../../quantum/keymap_common.c ****         case QK_LAYER_TAP ... QK_LAYER_TAP_MAX:
 450               		.loc 1 86 0
 451 026e 0895      		ret
 452               	.LVL31:
 453               	.L4:
  88:../../quantum/keymap_common.c ****             break;
 454               		.loc 1 88 0
 455 0270 9F70      		andi r25,15
 456               	.LVL32:
 457 0272 906A      		ori r25,160
 458               	.LVL33:
  89:../../quantum/keymap_common.c ****         case QK_TO ... QK_TO_MAX: ;
 459               		.loc 1 89 0
 460 0274 0895      		ret
 461               	.LVL34:
 462               	.L65:
  99:../../quantum/keymap_common.c ****             break;
 463               		.loc 1 99 0
 464 0276 982F      		mov r25,r24
 465 0278 8827      		clr r24
 466               	.LVL35:
 467 027a 816F      		ori r24,241
 468 027c 906A      		ori r25,160
 469               	.LVL36:
 100:../../quantum/keymap_common.c ****         case QK_DEF_LAYER ... QK_DEF_LAYER_MAX: ;
 470               		.loc 1 100 0
 471 027e 0895      		ret
 472               	.LVL37:
 473               	.L60:
 109:../../quantum/keymap_common.c ****             break;
 474               		.loc 1 109 0
 475 0280 90E2      		ldi r25,lo8(32)
 476 0282 299F      		mul r18,r25
 477 0284 9001      		movw r18,r0
 478 0286 1124      		clr __zero_reg__
 479 0288 81E0      		ldi r24,lo8(1)
 480 028a 90E0      		ldi r25,0
 481               	.LVL38:
 482 028c 00C0      		rjmp 2f
 483               		1:
 484 028e 880F      		lsl r24
 485 0290 991F      		rol r25
 486               		2:
 487 0292 4A95      		dec r20
 488 0294 02F4      		brpl 1b
 489 0296 822B      		or r24,r18
 490 0298 932B      		or r25,r19
 491               	.LVL39:
 492 029a 9A68      		ori r25,138
 493               	.LVL40:
 110:../../quantum/keymap_common.c ****         case QK_ONE_SHOT_LAYER ... QK_ONE_SHOT_LAYER_MAX: ;
 494               		.loc 1 110 0
 495 029c 0895      		ret
 496               	.LVL41:
 497               	.L16:
 114:../../quantum/keymap_common.c ****             break;
 498               		.loc 1 114 0
 499 029e 982F      		mov r25,r24
 500 02a0 8827      		clr r24
 501               	.LVL42:
 502 02a2 846F      		ori r24,244
 503 02a4 906A      		ori r25,160
 504               	.LVL43:
 115:../../quantum/keymap_common.c ****         case QK_ONE_SHOT_MOD ... QK_ONE_SHOT_MOD_MAX: ;
 505               		.loc 1 115 0
 506 02a6 0895      		ret
 507               	.LVL44:
 508               	.L24:
 119:../../quantum/keymap_common.c ****             break;
 509               		.loc 1 119 0
 510 02a8 8F71      		andi r24,31
 511 02aa 9927      		clr r25
 512               	.LVL45:
 513 02ac 982F      		mov r25,r24
 514 02ae 8827      		clr r24
 515               	.L63:
 516               	.LVL46:
 122:../../quantum/keymap_common.c ****             break;
 517               		.loc 1 122 0
 518 02b0 9062      		ori r25,32
 519               	.LVL47:
 123:../../quantum/keymap_common.c ****     #ifdef BACKLIGHT_ENABLE
 520               		.loc 1 123 0
 521 02b2 0895      		ret
 522               	.LVL48:
 523               	.L23:
 126:../../quantum/keymap_common.c ****             break;
 524               		.loc 1 126 0
 525 02b4 8F51      		subi r24,31
 526 02b6 9047      		sbci r25,112
 527               	.LVL49:
 528 02b8 946D      		ori r25,212
 529               	.LVL50:
 127:../../quantum/keymap_common.c ****         case BL_DEC:
 530               		.loc 1 127 0
 531 02ba 0895      		ret
 532               	.LVL51:
 533               	.L27:
 129:../../quantum/keymap_common.c ****             break;
 534               		.loc 1 129 0
 535 02bc 80E0      		ldi r24,0
 536 02be 91ED      		ldi r25,lo8(-47)
 130:../../quantum/keymap_common.c ****         case BL_INC:
 537               		.loc 1 130 0
 538 02c0 0895      		ret
 539               	.LVL52:
 540               	.L26:
 132:../../quantum/keymap_common.c ****             break;
 541               		.loc 1 132 0
 542 02c2 80E0      		ldi r24,0
 543 02c4 90ED      		ldi r25,lo8(-48)
 133:../../quantum/keymap_common.c ****         case BL_TOGG:
 544               		.loc 1 133 0
 545 02c6 0895      		ret
 546               	.LVL53:
 547               	.L28:
 135:../../quantum/keymap_common.c ****             break;
 548               		.loc 1 135 0
 549 02c8 80E0      		ldi r24,0
 550 02ca 92ED      		ldi r25,lo8(-46)
 136:../../quantum/keymap_common.c ****         case BL_STEP:
 551               		.loc 1 136 0
 552 02cc 0895      		ret
 553               	.LVL54:
 554               	.L2:
 142:../../quantum/keymap_common.c ****             break;
 555               		.loc 1 142 0
 556 02ce 80E0      		ldi r24,0
 557 02d0 90E0      		ldi r25,0
 143:../../quantum/keymap_common.c ****     }
 558               		.loc 1 143 0
 559 02d2 0895      		ret
 560               	.LVL55:
 561               	.L30:
  63:../../quantum/keymap_common.c ****             break;
 562               		.loc 1 63 0
 563 02d4 81E8      		ldi r24,lo8(-127)
 564 02d6 90E4      		ldi r25,lo8(64)
 565 02d8 0895      		ret
 566               	.LVL56:
 567               	.L31:
 568 02da 83E8      		ldi r24,lo8(-125)
 569 02dc 90E4      		ldi r25,lo8(64)
 570 02de 0895      		ret
 571               	.LVL57:
 572               	.L32:
  66:../../quantum/keymap_common.c ****             break;
 573               		.loc 1 66 0
 574 02e0 82EE      		ldi r24,lo8(-30)
 575 02e2 94E4      		ldi r25,lo8(68)
 576 02e4 0895      		ret
 577               	.LVL58:
 578               	.L33:
 579 02e6 89EE      		ldi r24,lo8(-23)
 580 02e8 94E4      		ldi r25,lo8(68)
 581 02ea 0895      		ret
 582               	.LVL59:
 583               	.L34:
 584 02ec 8AEE      		ldi r24,lo8(-22)
 585 02ee 94E4      		ldi r25,lo8(68)
 586 02f0 0895      		ret
 587               	.LVL60:
 588               	.L35:
 589 02f2 85EB      		ldi r24,lo8(-75)
 590 02f4 94E4      		ldi r25,lo8(68)
 591 02f6 0895      		ret
 592               	.LVL61:
 593               	.L36:
 594 02f8 86EB      		ldi r24,lo8(-74)
 595 02fa 94E4      		ldi r25,lo8(68)
 596 02fc 0895      		ret
 597               	.LVL62:
 598               	.L37:
 599 02fe 83EB      		ldi r24,lo8(-77)
 600 0300 94E4      		ldi r25,lo8(68)
 601 0302 0895      		ret
 602               	.LVL63:
 603               	.L38:
 604 0304 84EB      		ldi r24,lo8(-76)
 605 0306 94E4      		ldi r25,lo8(68)
 606 0308 0895      		ret
 607               	.LVL64:
 608               	.L39:
 609 030a 87EB      		ldi r24,lo8(-73)
 610 030c 94E4      		ldi r25,lo8(68)
 611 030e 0895      		ret
 612               	.LVL65:
 613               	.L40:
 614 0310 8CEC      		ldi r24,lo8(-52)
 615 0312 94E4      		ldi r25,lo8(68)
 616 0314 0895      		ret
 617               	.LVL66:
 618               	.L41:
 619 0316 8DEC      		ldi r24,lo8(-51)
 620 0318 94E4      		ldi r25,lo8(68)
 621 031a 0895      		ret
 622               	.LVL67:
 623               	.L42:
 624 031c 83E8      		ldi r24,lo8(-125)
 625 031e 95E4      		ldi r25,lo8(69)
 626 0320 0895      		ret
 627               	.LVL68:
 628               	.L43:
 629 0322 8AE8      		ldi r24,lo8(-118)
 630 0324 95E4      		ldi r25,lo8(69)
 631 0326 0895      		ret
 632               	.LVL69:
 633               	.L44:
 634 0328 82E9      		ldi r24,lo8(-110)
 635 032a 95E4      		ldi r25,lo8(69)
 636 032c 0895      		ret
 637               	.LVL70:
 638               	.L45:
 639 032e 84E9      		ldi r24,lo8(-108)
 640 0330 95E4      		ldi r25,lo8(69)
 641 0332 0895      		ret
 642               	.LVL71:
 643               	.L46:
 644 0334 81E2      		ldi r24,lo8(33)
 645 0336 96E4      		ldi r25,lo8(70)
 646 0338 0895      		ret
 647               	.LVL72:
 648               	.L47:
 649 033a 83E2      		ldi r24,lo8(35)
 650 033c 96E4      		ldi r25,lo8(70)
 651 033e 0895      		ret
 652               	.LVL73:
 653               	.L48:
 654 0340 84E2      		ldi r24,lo8(36)
 655 0342 96E4      		ldi r25,lo8(70)
 656 0344 0895      		ret
 657               	.LVL74:
 658               	.L49:
 659 0346 85E2      		ldi r24,lo8(37)
 660 0348 96E4      		ldi r25,lo8(70)
 661 034a 0895      		ret
 662               	.LVL75:
 663               	.L50:
 664 034c 86E2      		ldi r24,lo8(38)
 665 034e 96E4      		ldi r25,lo8(70)
 666 0350 0895      		ret
 667               	.LVL76:
 668               	.L51:
 669 0352 87E2      		ldi r24,lo8(39)
 670 0354 96E4      		ldi r25,lo8(70)
 671 0356 0895      		ret
 672               	.LVL77:
 673               	.L52:
 674 0358 8AE2      		ldi r24,lo8(42)
 675 035a 96E4      		ldi r25,lo8(70)
 676               	.LVL78:
 677               	.L6:
 146:../../quantum/keymap_common.c **** 
 678               		.loc 1 146 0
 679 035c 0895      		ret
 680               		.cfi_endproc
 681               	.LFE107:
 683               		.section	.text.action_get_macro,"ax",@progbits
 684               		.weak	action_get_macro
 686               	action_get_macro:
 687               	.LFB108:
 156:../../quantum/keymap_common.c ****     return MACRO_NONE;
 688               		.loc 1 156 0
 689               		.cfi_startproc
 690               	.LVL79:
 691               	/* prologue: function */
 692               	/* frame size = 0 */
 693               	/* stack size = 0 */
 694               	.L__stack_usage = 0
 158:../../quantum/keymap_common.c **** 
 695               		.loc 1 158 0
 696 0000 80E0      		ldi r24,0
 697 0002 90E0      		ldi r25,0
 698               	.LVL80:
 699 0004 0895      		ret
 700               		.cfi_endproc
 701               	.LFE108:
 703               		.section	.text.action_function,"ax",@progbits
 704               		.weak	action_function
 706               	action_function:
 707               	.LFB109:
 163:../../quantum/keymap_common.c **** }
 708               		.loc 1 163 0
 709               		.cfi_startproc
 710               	.LVL81:
 711               	/* prologue: function */
 712               	/* frame size = 0 */
 713               	/* stack size = 0 */
 714               	.L__stack_usage = 0
 715 0000 0895      		ret
 716               		.cfi_endproc
 717               	.LFE109:
 719               		.section	.text.keymap_key_to_keycode,"ax",@progbits
 720               	.global	keymap_key_to_keycode
 722               	keymap_key_to_keycode:
 723               	.LFB110:
 168:../../quantum/keymap_common.c ****     // Read entire word (16bits)
 724               		.loc 1 168 0
 725               		.cfi_startproc
 726               	.LVL82:
 727               	/* prologue: function */
 728               	/* frame size = 0 */
 729               	/* stack size = 0 */
 730               	.L__stack_usage = 0
 731               	.LBB12:
 732               		.loc 1 170 0
 733 0000 9CE0      		ldi r25,lo8(12)
 734 0002 799F      		mul r23,r25
 735 0004 F001      		movw r30,r0
 736 0006 1124      		clr __zero_reg__
 737 0008 9CE3      		ldi r25,lo8(60)
 738 000a 899F      		mul r24,r25
 739 000c E00D      		add r30,r0
 740 000e F11D      		adc r31,r1
 741 0010 1124      		clr __zero_reg__
 742 0012 E60F      		add r30,r22
 743 0014 F11D      		adc r31,__zero_reg__
 744 0016 EE0F      		lsl r30
 745 0018 FF1F      		rol r31
 746               	.LVL83:
 747 001a E050      		subi r30,lo8(-(keymaps))
 748 001c F040      		sbci r31,hi8(-(keymaps))
 749               	.LVL84:
 750               	.LBE12:
 171:../../quantum/keymap_common.c **** }
 751               		.loc 1 171 0
 752               	/* #APP */
 753               	 ;  170 "../../quantum/keymap_common.c" 1
 754 001e 8591      		lpm r24, Z+
 755 0020 9491      		lpm r25, Z
 756               		
 757               	 ;  0 "" 2
 758               	/* #NOAPP */
 759 0022 0895      		ret
 760               		.cfi_endproc
 761               	.LFE110:
 763               		.weak	fn_actions
 764               		.section	.progmem.data.fn_actions,"a",@progbits
 767               	fn_actions:
 768               		.text
 769               	.Letext0:
 770               		.file 2 "/usr/local/Cellar/avr-gcc/4.9.3/avr/include/stdint.h"
 771               		.file 3 "../../tmk_core/common/keyboard.h"
 772               		.file 4 "../../tmk_core/common/keycode.h"
 773               		.file 5 "../../tmk_core/common/action_code.h"
 774               		.file 6 "../../tmk_core/common/action_macro.h"
 775               		.file 7 "../../tmk_core/common/action.h"
 776               		.file 8 "../../quantum/keymap.h"
 777               		.file 9 "../../tmk_core/protocol/lufa/LUFA-git/LUFA/Drivers/USB/Core/USBTask.h"
 778               		.file 10 "../../quantum/keycode_config.h"
DEFINED SYMBOLS
                            *ABS*:0000000000000000 keymap_common.c
/var/folders/dz/_5509m0x1cvcwp6fj8ygb2300000gn/T//ccFr8xf9.s:2      *ABS*:000000000000003e __SP_H__
/var/folders/dz/_5509m0x1cvcwp6fj8ygb2300000gn/T//ccFr8xf9.s:3      *ABS*:000000000000003d __SP_L__
/var/folders/dz/_5509m0x1cvcwp6fj8ygb2300000gn/T//ccFr8xf9.s:4      *ABS*:000000000000003f __SREG__
/var/folders/dz/_5509m0x1cvcwp6fj8ygb2300000gn/T//ccFr8xf9.s:5      *ABS*:0000000000000000 __tmp_reg__
/var/folders/dz/_5509m0x1cvcwp6fj8ygb2300000gn/T//ccFr8xf9.s:6      *ABS*:0000000000000001 __zero_reg__
/var/folders/dz/_5509m0x1cvcwp6fj8ygb2300000gn/T//ccFr8xf9.s:13     .text.action_for_key:0000000000000000 action_for_key
/var/folders/dz/_5509m0x1cvcwp6fj8ygb2300000gn/T//ccFr8xf9.s:767    .progmem.data.fn_actions:0000000000000000 fn_actions
/var/folders/dz/_5509m0x1cvcwp6fj8ygb2300000gn/T//ccFr8xf9.s:686    .text.action_get_macro:0000000000000000 action_get_macro
/var/folders/dz/_5509m0x1cvcwp6fj8ygb2300000gn/T//ccFr8xf9.s:706    .text.action_function:0000000000000000 action_function
/var/folders/dz/_5509m0x1cvcwp6fj8ygb2300000gn/T//ccFr8xf9.s:722    .text.keymap_key_to_keycode:0000000000000000 keymap_key_to_keycode

UNDEFINED SYMBOLS
keymaps
keycode_config
